                                      1 ;--------------------------------------------------------
                                      2 ; File Created by SDCC : free open source ANSI-C Compiler
                                      3 ; Version 3.9.0 #11195 (MINGW64)
                                      4 ;--------------------------------------------------------
                                      5 	.module Function
                                      6 	.optsdcc -mmcs51 --model-large
                                      7 	
                                      8 ;--------------------------------------------------------
                                      9 ; Public variables in this module
                                     10 ;--------------------------------------------------------
                                     11 	.globl _get_block
                                     12 	.globl _getstr_data
                                     13 	.globl _getstr_addr
                                     14 	.globl _strtola
                                     15 	.globl _delay
                                     16 	.globl _printf_tiny
                                     17 	.globl _P5_7
                                     18 	.globl _P5_6
                                     19 	.globl _P5_5
                                     20 	.globl _P5_4
                                     21 	.globl _P5_3
                                     22 	.globl _P5_2
                                     23 	.globl _P5_1
                                     24 	.globl _P5_0
                                     25 	.globl _P4_7
                                     26 	.globl _P4_6
                                     27 	.globl _P4_5
                                     28 	.globl _P4_4
                                     29 	.globl _P4_3
                                     30 	.globl _P4_2
                                     31 	.globl _P4_1
                                     32 	.globl _P4_0
                                     33 	.globl _PX0L
                                     34 	.globl _PT0L
                                     35 	.globl _PX1L
                                     36 	.globl _PT1L
                                     37 	.globl _PSL
                                     38 	.globl _PT2L
                                     39 	.globl _PPCL
                                     40 	.globl _EC
                                     41 	.globl _CCF0
                                     42 	.globl _CCF1
                                     43 	.globl _CCF2
                                     44 	.globl _CCF3
                                     45 	.globl _CCF4
                                     46 	.globl _CR
                                     47 	.globl _CF
                                     48 	.globl _TF2
                                     49 	.globl _EXF2
                                     50 	.globl _RCLK
                                     51 	.globl _TCLK
                                     52 	.globl _EXEN2
                                     53 	.globl _TR2
                                     54 	.globl _C_T2
                                     55 	.globl _CP_RL2
                                     56 	.globl _T2CON_7
                                     57 	.globl _T2CON_6
                                     58 	.globl _T2CON_5
                                     59 	.globl _T2CON_4
                                     60 	.globl _T2CON_3
                                     61 	.globl _T2CON_2
                                     62 	.globl _T2CON_1
                                     63 	.globl _T2CON_0
                                     64 	.globl _PT2
                                     65 	.globl _ET2
                                     66 	.globl _CY
                                     67 	.globl _AC
                                     68 	.globl _F0
                                     69 	.globl _RS1
                                     70 	.globl _RS0
                                     71 	.globl _OV
                                     72 	.globl _F1
                                     73 	.globl _P
                                     74 	.globl _PS
                                     75 	.globl _PT1
                                     76 	.globl _PX1
                                     77 	.globl _PT0
                                     78 	.globl _PX0
                                     79 	.globl _RD
                                     80 	.globl _WR
                                     81 	.globl _T1
                                     82 	.globl _T0
                                     83 	.globl _INT1
                                     84 	.globl _INT0
                                     85 	.globl _TXD
                                     86 	.globl _RXD
                                     87 	.globl _P3_7
                                     88 	.globl _P3_6
                                     89 	.globl _P3_5
                                     90 	.globl _P3_4
                                     91 	.globl _P3_3
                                     92 	.globl _P3_2
                                     93 	.globl _P3_1
                                     94 	.globl _P3_0
                                     95 	.globl _EA
                                     96 	.globl _ES
                                     97 	.globl _ET1
                                     98 	.globl _EX1
                                     99 	.globl _ET0
                                    100 	.globl _EX0
                                    101 	.globl _P2_7
                                    102 	.globl _P2_6
                                    103 	.globl _P2_5
                                    104 	.globl _P2_4
                                    105 	.globl _P2_3
                                    106 	.globl _P2_2
                                    107 	.globl _P2_1
                                    108 	.globl _P2_0
                                    109 	.globl _SM0
                                    110 	.globl _SM1
                                    111 	.globl _SM2
                                    112 	.globl _REN
                                    113 	.globl _TB8
                                    114 	.globl _RB8
                                    115 	.globl _TI
                                    116 	.globl _RI
                                    117 	.globl _P1_7
                                    118 	.globl _P1_6
                                    119 	.globl _P1_5
                                    120 	.globl _P1_4
                                    121 	.globl _P1_3
                                    122 	.globl _P1_2
                                    123 	.globl _P1_1
                                    124 	.globl _P1_0
                                    125 	.globl _TF1
                                    126 	.globl _TR1
                                    127 	.globl _TF0
                                    128 	.globl _TR0
                                    129 	.globl _IE1
                                    130 	.globl _IT1
                                    131 	.globl _IE0
                                    132 	.globl _IT0
                                    133 	.globl _P0_7
                                    134 	.globl _P0_6
                                    135 	.globl _P0_5
                                    136 	.globl _P0_4
                                    137 	.globl _P0_3
                                    138 	.globl _P0_2
                                    139 	.globl _P0_1
                                    140 	.globl _P0_0
                                    141 	.globl _EECON
                                    142 	.globl _KBF
                                    143 	.globl _KBE
                                    144 	.globl _KBLS
                                    145 	.globl _BRL
                                    146 	.globl _BDRCON
                                    147 	.globl _T2MOD
                                    148 	.globl _SPDAT
                                    149 	.globl _SPSTA
                                    150 	.globl _SPCON
                                    151 	.globl _SADEN
                                    152 	.globl _SADDR
                                    153 	.globl _WDTPRG
                                    154 	.globl _WDTRST
                                    155 	.globl _P5
                                    156 	.globl _P4
                                    157 	.globl _IPH1
                                    158 	.globl _IPL1
                                    159 	.globl _IPH0
                                    160 	.globl _IPL0
                                    161 	.globl _IEN1
                                    162 	.globl _IEN0
                                    163 	.globl _CMOD
                                    164 	.globl _CL
                                    165 	.globl _CH
                                    166 	.globl _CCON
                                    167 	.globl _CCAPM4
                                    168 	.globl _CCAPM3
                                    169 	.globl _CCAPM2
                                    170 	.globl _CCAPM1
                                    171 	.globl _CCAPM0
                                    172 	.globl _CCAP4L
                                    173 	.globl _CCAP3L
                                    174 	.globl _CCAP2L
                                    175 	.globl _CCAP1L
                                    176 	.globl _CCAP0L
                                    177 	.globl _CCAP4H
                                    178 	.globl _CCAP3H
                                    179 	.globl _CCAP2H
                                    180 	.globl _CCAP1H
                                    181 	.globl _CCAP0H
                                    182 	.globl _CKCON1
                                    183 	.globl _CKCON0
                                    184 	.globl _CKRL
                                    185 	.globl _AUXR1
                                    186 	.globl _AUXR
                                    187 	.globl _TH2
                                    188 	.globl _TL2
                                    189 	.globl _RCAP2H
                                    190 	.globl _RCAP2L
                                    191 	.globl _T2CON
                                    192 	.globl _B
                                    193 	.globl _ACC
                                    194 	.globl _PSW
                                    195 	.globl _IP
                                    196 	.globl _P3
                                    197 	.globl _IE
                                    198 	.globl _P2
                                    199 	.globl _SBUF
                                    200 	.globl _SCON
                                    201 	.globl _P1
                                    202 	.globl _TH1
                                    203 	.globl _TH0
                                    204 	.globl _TL1
                                    205 	.globl _TL0
                                    206 	.globl _TMOD
                                    207 	.globl _TCON
                                    208 	.globl _PCON
                                    209 	.globl _DPH
                                    210 	.globl _DPL
                                    211 	.globl _SP
                                    212 	.globl _P0
                                    213 	.globl _page
                                    214 	.globl _block
                                    215 	.globl _putchar
                                    216 	.globl _getchar
                                    217 ;--------------------------------------------------------
                                    218 ; special function registers
                                    219 ;--------------------------------------------------------
                                    220 	.area RSEG    (ABS,DATA)
      000000                        221 	.org 0x0000
                           000080   222 G$P0$0_0$0 == 0x0080
                           000080   223 _P0	=	0x0080
                           000081   224 G$SP$0_0$0 == 0x0081
                           000081   225 _SP	=	0x0081
                           000082   226 G$DPL$0_0$0 == 0x0082
                           000082   227 _DPL	=	0x0082
                           000083   228 G$DPH$0_0$0 == 0x0083
                           000083   229 _DPH	=	0x0083
                           000087   230 G$PCON$0_0$0 == 0x0087
                           000087   231 _PCON	=	0x0087
                           000088   232 G$TCON$0_0$0 == 0x0088
                           000088   233 _TCON	=	0x0088
                           000089   234 G$TMOD$0_0$0 == 0x0089
                           000089   235 _TMOD	=	0x0089
                           00008A   236 G$TL0$0_0$0 == 0x008a
                           00008A   237 _TL0	=	0x008a
                           00008B   238 G$TL1$0_0$0 == 0x008b
                           00008B   239 _TL1	=	0x008b
                           00008C   240 G$TH0$0_0$0 == 0x008c
                           00008C   241 _TH0	=	0x008c
                           00008D   242 G$TH1$0_0$0 == 0x008d
                           00008D   243 _TH1	=	0x008d
                           000090   244 G$P1$0_0$0 == 0x0090
                           000090   245 _P1	=	0x0090
                           000098   246 G$SCON$0_0$0 == 0x0098
                           000098   247 _SCON	=	0x0098
                           000099   248 G$SBUF$0_0$0 == 0x0099
                           000099   249 _SBUF	=	0x0099
                           0000A0   250 G$P2$0_0$0 == 0x00a0
                           0000A0   251 _P2	=	0x00a0
                           0000A8   252 G$IE$0_0$0 == 0x00a8
                           0000A8   253 _IE	=	0x00a8
                           0000B0   254 G$P3$0_0$0 == 0x00b0
                           0000B0   255 _P3	=	0x00b0
                           0000B8   256 G$IP$0_0$0 == 0x00b8
                           0000B8   257 _IP	=	0x00b8
                           0000D0   258 G$PSW$0_0$0 == 0x00d0
                           0000D0   259 _PSW	=	0x00d0
                           0000E0   260 G$ACC$0_0$0 == 0x00e0
                           0000E0   261 _ACC	=	0x00e0
                           0000F0   262 G$B$0_0$0 == 0x00f0
                           0000F0   263 _B	=	0x00f0
                           0000C8   264 G$T2CON$0_0$0 == 0x00c8
                           0000C8   265 _T2CON	=	0x00c8
                           0000CA   266 G$RCAP2L$0_0$0 == 0x00ca
                           0000CA   267 _RCAP2L	=	0x00ca
                           0000CB   268 G$RCAP2H$0_0$0 == 0x00cb
                           0000CB   269 _RCAP2H	=	0x00cb
                           0000CC   270 G$TL2$0_0$0 == 0x00cc
                           0000CC   271 _TL2	=	0x00cc
                           0000CD   272 G$TH2$0_0$0 == 0x00cd
                           0000CD   273 _TH2	=	0x00cd
                           00008E   274 G$AUXR$0_0$0 == 0x008e
                           00008E   275 _AUXR	=	0x008e
                           0000A2   276 G$AUXR1$0_0$0 == 0x00a2
                           0000A2   277 _AUXR1	=	0x00a2
                           000097   278 G$CKRL$0_0$0 == 0x0097
                           000097   279 _CKRL	=	0x0097
                           00008F   280 G$CKCON0$0_0$0 == 0x008f
                           00008F   281 _CKCON0	=	0x008f
                           0000AF   282 G$CKCON1$0_0$0 == 0x00af
                           0000AF   283 _CKCON1	=	0x00af
                           0000FA   284 G$CCAP0H$0_0$0 == 0x00fa
                           0000FA   285 _CCAP0H	=	0x00fa
                           0000FB   286 G$CCAP1H$0_0$0 == 0x00fb
                           0000FB   287 _CCAP1H	=	0x00fb
                           0000FC   288 G$CCAP2H$0_0$0 == 0x00fc
                           0000FC   289 _CCAP2H	=	0x00fc
                           0000FD   290 G$CCAP3H$0_0$0 == 0x00fd
                           0000FD   291 _CCAP3H	=	0x00fd
                           0000FE   292 G$CCAP4H$0_0$0 == 0x00fe
                           0000FE   293 _CCAP4H	=	0x00fe
                           0000EA   294 G$CCAP0L$0_0$0 == 0x00ea
                           0000EA   295 _CCAP0L	=	0x00ea
                           0000EB   296 G$CCAP1L$0_0$0 == 0x00eb
                           0000EB   297 _CCAP1L	=	0x00eb
                           0000EC   298 G$CCAP2L$0_0$0 == 0x00ec
                           0000EC   299 _CCAP2L	=	0x00ec
                           0000ED   300 G$CCAP3L$0_0$0 == 0x00ed
                           0000ED   301 _CCAP3L	=	0x00ed
                           0000EE   302 G$CCAP4L$0_0$0 == 0x00ee
                           0000EE   303 _CCAP4L	=	0x00ee
                           0000DA   304 G$CCAPM0$0_0$0 == 0x00da
                           0000DA   305 _CCAPM0	=	0x00da
                           0000DB   306 G$CCAPM1$0_0$0 == 0x00db
                           0000DB   307 _CCAPM1	=	0x00db
                           0000DC   308 G$CCAPM2$0_0$0 == 0x00dc
                           0000DC   309 _CCAPM2	=	0x00dc
                           0000DD   310 G$CCAPM3$0_0$0 == 0x00dd
                           0000DD   311 _CCAPM3	=	0x00dd
                           0000DE   312 G$CCAPM4$0_0$0 == 0x00de
                           0000DE   313 _CCAPM4	=	0x00de
                           0000D8   314 G$CCON$0_0$0 == 0x00d8
                           0000D8   315 _CCON	=	0x00d8
                           0000F9   316 G$CH$0_0$0 == 0x00f9
                           0000F9   317 _CH	=	0x00f9
                           0000E9   318 G$CL$0_0$0 == 0x00e9
                           0000E9   319 _CL	=	0x00e9
                           0000D9   320 G$CMOD$0_0$0 == 0x00d9
                           0000D9   321 _CMOD	=	0x00d9
                           0000A8   322 G$IEN0$0_0$0 == 0x00a8
                           0000A8   323 _IEN0	=	0x00a8
                           0000B1   324 G$IEN1$0_0$0 == 0x00b1
                           0000B1   325 _IEN1	=	0x00b1
                           0000B8   326 G$IPL0$0_0$0 == 0x00b8
                           0000B8   327 _IPL0	=	0x00b8
                           0000B7   328 G$IPH0$0_0$0 == 0x00b7
                           0000B7   329 _IPH0	=	0x00b7
                           0000B2   330 G$IPL1$0_0$0 == 0x00b2
                           0000B2   331 _IPL1	=	0x00b2
                           0000B3   332 G$IPH1$0_0$0 == 0x00b3
                           0000B3   333 _IPH1	=	0x00b3
                           0000C0   334 G$P4$0_0$0 == 0x00c0
                           0000C0   335 _P4	=	0x00c0
                           0000E8   336 G$P5$0_0$0 == 0x00e8
                           0000E8   337 _P5	=	0x00e8
                           0000A6   338 G$WDTRST$0_0$0 == 0x00a6
                           0000A6   339 _WDTRST	=	0x00a6
                           0000A7   340 G$WDTPRG$0_0$0 == 0x00a7
                           0000A7   341 _WDTPRG	=	0x00a7
                           0000A9   342 G$SADDR$0_0$0 == 0x00a9
                           0000A9   343 _SADDR	=	0x00a9
                           0000B9   344 G$SADEN$0_0$0 == 0x00b9
                           0000B9   345 _SADEN	=	0x00b9
                           0000C3   346 G$SPCON$0_0$0 == 0x00c3
                           0000C3   347 _SPCON	=	0x00c3
                           0000C4   348 G$SPSTA$0_0$0 == 0x00c4
                           0000C4   349 _SPSTA	=	0x00c4
                           0000C5   350 G$SPDAT$0_0$0 == 0x00c5
                           0000C5   351 _SPDAT	=	0x00c5
                           0000C9   352 G$T2MOD$0_0$0 == 0x00c9
                           0000C9   353 _T2MOD	=	0x00c9
                           00009B   354 G$BDRCON$0_0$0 == 0x009b
                           00009B   355 _BDRCON	=	0x009b
                           00009A   356 G$BRL$0_0$0 == 0x009a
                           00009A   357 _BRL	=	0x009a
                           00009C   358 G$KBLS$0_0$0 == 0x009c
                           00009C   359 _KBLS	=	0x009c
                           00009D   360 G$KBE$0_0$0 == 0x009d
                           00009D   361 _KBE	=	0x009d
                           00009E   362 G$KBF$0_0$0 == 0x009e
                           00009E   363 _KBF	=	0x009e
                           0000D2   364 G$EECON$0_0$0 == 0x00d2
                           0000D2   365 _EECON	=	0x00d2
                                    366 ;--------------------------------------------------------
                                    367 ; special function bits
                                    368 ;--------------------------------------------------------
                                    369 	.area RSEG    (ABS,DATA)
      000000                        370 	.org 0x0000
                           000080   371 G$P0_0$0_0$0 == 0x0080
                           000080   372 _P0_0	=	0x0080
                           000081   373 G$P0_1$0_0$0 == 0x0081
                           000081   374 _P0_1	=	0x0081
                           000082   375 G$P0_2$0_0$0 == 0x0082
                           000082   376 _P0_2	=	0x0082
                           000083   377 G$P0_3$0_0$0 == 0x0083
                           000083   378 _P0_3	=	0x0083
                           000084   379 G$P0_4$0_0$0 == 0x0084
                           000084   380 _P0_4	=	0x0084
                           000085   381 G$P0_5$0_0$0 == 0x0085
                           000085   382 _P0_5	=	0x0085
                           000086   383 G$P0_6$0_0$0 == 0x0086
                           000086   384 _P0_6	=	0x0086
                           000087   385 G$P0_7$0_0$0 == 0x0087
                           000087   386 _P0_7	=	0x0087
                           000088   387 G$IT0$0_0$0 == 0x0088
                           000088   388 _IT0	=	0x0088
                           000089   389 G$IE0$0_0$0 == 0x0089
                           000089   390 _IE0	=	0x0089
                           00008A   391 G$IT1$0_0$0 == 0x008a
                           00008A   392 _IT1	=	0x008a
                           00008B   393 G$IE1$0_0$0 == 0x008b
                           00008B   394 _IE1	=	0x008b
                           00008C   395 G$TR0$0_0$0 == 0x008c
                           00008C   396 _TR0	=	0x008c
                           00008D   397 G$TF0$0_0$0 == 0x008d
                           00008D   398 _TF0	=	0x008d
                           00008E   399 G$TR1$0_0$0 == 0x008e
                           00008E   400 _TR1	=	0x008e
                           00008F   401 G$TF1$0_0$0 == 0x008f
                           00008F   402 _TF1	=	0x008f
                           000090   403 G$P1_0$0_0$0 == 0x0090
                           000090   404 _P1_0	=	0x0090
                           000091   405 G$P1_1$0_0$0 == 0x0091
                           000091   406 _P1_1	=	0x0091
                           000092   407 G$P1_2$0_0$0 == 0x0092
                           000092   408 _P1_2	=	0x0092
                           000093   409 G$P1_3$0_0$0 == 0x0093
                           000093   410 _P1_3	=	0x0093
                           000094   411 G$P1_4$0_0$0 == 0x0094
                           000094   412 _P1_4	=	0x0094
                           000095   413 G$P1_5$0_0$0 == 0x0095
                           000095   414 _P1_5	=	0x0095
                           000096   415 G$P1_6$0_0$0 == 0x0096
                           000096   416 _P1_6	=	0x0096
                           000097   417 G$P1_7$0_0$0 == 0x0097
                           000097   418 _P1_7	=	0x0097
                           000098   419 G$RI$0_0$0 == 0x0098
                           000098   420 _RI	=	0x0098
                           000099   421 G$TI$0_0$0 == 0x0099
                           000099   422 _TI	=	0x0099
                           00009A   423 G$RB8$0_0$0 == 0x009a
                           00009A   424 _RB8	=	0x009a
                           00009B   425 G$TB8$0_0$0 == 0x009b
                           00009B   426 _TB8	=	0x009b
                           00009C   427 G$REN$0_0$0 == 0x009c
                           00009C   428 _REN	=	0x009c
                           00009D   429 G$SM2$0_0$0 == 0x009d
                           00009D   430 _SM2	=	0x009d
                           00009E   431 G$SM1$0_0$0 == 0x009e
                           00009E   432 _SM1	=	0x009e
                           00009F   433 G$SM0$0_0$0 == 0x009f
                           00009F   434 _SM0	=	0x009f
                           0000A0   435 G$P2_0$0_0$0 == 0x00a0
                           0000A0   436 _P2_0	=	0x00a0
                           0000A1   437 G$P2_1$0_0$0 == 0x00a1
                           0000A1   438 _P2_1	=	0x00a1
                           0000A2   439 G$P2_2$0_0$0 == 0x00a2
                           0000A2   440 _P2_2	=	0x00a2
                           0000A3   441 G$P2_3$0_0$0 == 0x00a3
                           0000A3   442 _P2_3	=	0x00a3
                           0000A4   443 G$P2_4$0_0$0 == 0x00a4
                           0000A4   444 _P2_4	=	0x00a4
                           0000A5   445 G$P2_5$0_0$0 == 0x00a5
                           0000A5   446 _P2_5	=	0x00a5
                           0000A6   447 G$P2_6$0_0$0 == 0x00a6
                           0000A6   448 _P2_6	=	0x00a6
                           0000A7   449 G$P2_7$0_0$0 == 0x00a7
                           0000A7   450 _P2_7	=	0x00a7
                           0000A8   451 G$EX0$0_0$0 == 0x00a8
                           0000A8   452 _EX0	=	0x00a8
                           0000A9   453 G$ET0$0_0$0 == 0x00a9
                           0000A9   454 _ET0	=	0x00a9
                           0000AA   455 G$EX1$0_0$0 == 0x00aa
                           0000AA   456 _EX1	=	0x00aa
                           0000AB   457 G$ET1$0_0$0 == 0x00ab
                           0000AB   458 _ET1	=	0x00ab
                           0000AC   459 G$ES$0_0$0 == 0x00ac
                           0000AC   460 _ES	=	0x00ac
                           0000AF   461 G$EA$0_0$0 == 0x00af
                           0000AF   462 _EA	=	0x00af
                           0000B0   463 G$P3_0$0_0$0 == 0x00b0
                           0000B0   464 _P3_0	=	0x00b0
                           0000B1   465 G$P3_1$0_0$0 == 0x00b1
                           0000B1   466 _P3_1	=	0x00b1
                           0000B2   467 G$P3_2$0_0$0 == 0x00b2
                           0000B2   468 _P3_2	=	0x00b2
                           0000B3   469 G$P3_3$0_0$0 == 0x00b3
                           0000B3   470 _P3_3	=	0x00b3
                           0000B4   471 G$P3_4$0_0$0 == 0x00b4
                           0000B4   472 _P3_4	=	0x00b4
                           0000B5   473 G$P3_5$0_0$0 == 0x00b5
                           0000B5   474 _P3_5	=	0x00b5
                           0000B6   475 G$P3_6$0_0$0 == 0x00b6
                           0000B6   476 _P3_6	=	0x00b6
                           0000B7   477 G$P3_7$0_0$0 == 0x00b7
                           0000B7   478 _P3_7	=	0x00b7
                           0000B0   479 G$RXD$0_0$0 == 0x00b0
                           0000B0   480 _RXD	=	0x00b0
                           0000B1   481 G$TXD$0_0$0 == 0x00b1
                           0000B1   482 _TXD	=	0x00b1
                           0000B2   483 G$INT0$0_0$0 == 0x00b2
                           0000B2   484 _INT0	=	0x00b2
                           0000B3   485 G$INT1$0_0$0 == 0x00b3
                           0000B3   486 _INT1	=	0x00b3
                           0000B4   487 G$T0$0_0$0 == 0x00b4
                           0000B4   488 _T0	=	0x00b4
                           0000B5   489 G$T1$0_0$0 == 0x00b5
                           0000B5   490 _T1	=	0x00b5
                           0000B6   491 G$WR$0_0$0 == 0x00b6
                           0000B6   492 _WR	=	0x00b6
                           0000B7   493 G$RD$0_0$0 == 0x00b7
                           0000B7   494 _RD	=	0x00b7
                           0000B8   495 G$PX0$0_0$0 == 0x00b8
                           0000B8   496 _PX0	=	0x00b8
                           0000B9   497 G$PT0$0_0$0 == 0x00b9
                           0000B9   498 _PT0	=	0x00b9
                           0000BA   499 G$PX1$0_0$0 == 0x00ba
                           0000BA   500 _PX1	=	0x00ba
                           0000BB   501 G$PT1$0_0$0 == 0x00bb
                           0000BB   502 _PT1	=	0x00bb
                           0000BC   503 G$PS$0_0$0 == 0x00bc
                           0000BC   504 _PS	=	0x00bc
                           0000D0   505 G$P$0_0$0 == 0x00d0
                           0000D0   506 _P	=	0x00d0
                           0000D1   507 G$F1$0_0$0 == 0x00d1
                           0000D1   508 _F1	=	0x00d1
                           0000D2   509 G$OV$0_0$0 == 0x00d2
                           0000D2   510 _OV	=	0x00d2
                           0000D3   511 G$RS0$0_0$0 == 0x00d3
                           0000D3   512 _RS0	=	0x00d3
                           0000D4   513 G$RS1$0_0$0 == 0x00d4
                           0000D4   514 _RS1	=	0x00d4
                           0000D5   515 G$F0$0_0$0 == 0x00d5
                           0000D5   516 _F0	=	0x00d5
                           0000D6   517 G$AC$0_0$0 == 0x00d6
                           0000D6   518 _AC	=	0x00d6
                           0000D7   519 G$CY$0_0$0 == 0x00d7
                           0000D7   520 _CY	=	0x00d7
                           0000AD   521 G$ET2$0_0$0 == 0x00ad
                           0000AD   522 _ET2	=	0x00ad
                           0000BD   523 G$PT2$0_0$0 == 0x00bd
                           0000BD   524 _PT2	=	0x00bd
                           0000C8   525 G$T2CON_0$0_0$0 == 0x00c8
                           0000C8   526 _T2CON_0	=	0x00c8
                           0000C9   527 G$T2CON_1$0_0$0 == 0x00c9
                           0000C9   528 _T2CON_1	=	0x00c9
                           0000CA   529 G$T2CON_2$0_0$0 == 0x00ca
                           0000CA   530 _T2CON_2	=	0x00ca
                           0000CB   531 G$T2CON_3$0_0$0 == 0x00cb
                           0000CB   532 _T2CON_3	=	0x00cb
                           0000CC   533 G$T2CON_4$0_0$0 == 0x00cc
                           0000CC   534 _T2CON_4	=	0x00cc
                           0000CD   535 G$T2CON_5$0_0$0 == 0x00cd
                           0000CD   536 _T2CON_5	=	0x00cd
                           0000CE   537 G$T2CON_6$0_0$0 == 0x00ce
                           0000CE   538 _T2CON_6	=	0x00ce
                           0000CF   539 G$T2CON_7$0_0$0 == 0x00cf
                           0000CF   540 _T2CON_7	=	0x00cf
                           0000C8   541 G$CP_RL2$0_0$0 == 0x00c8
                           0000C8   542 _CP_RL2	=	0x00c8
                           0000C9   543 G$C_T2$0_0$0 == 0x00c9
                           0000C9   544 _C_T2	=	0x00c9
                           0000CA   545 G$TR2$0_0$0 == 0x00ca
                           0000CA   546 _TR2	=	0x00ca
                           0000CB   547 G$EXEN2$0_0$0 == 0x00cb
                           0000CB   548 _EXEN2	=	0x00cb
                           0000CC   549 G$TCLK$0_0$0 == 0x00cc
                           0000CC   550 _TCLK	=	0x00cc
                           0000CD   551 G$RCLK$0_0$0 == 0x00cd
                           0000CD   552 _RCLK	=	0x00cd
                           0000CE   553 G$EXF2$0_0$0 == 0x00ce
                           0000CE   554 _EXF2	=	0x00ce
                           0000CF   555 G$TF2$0_0$0 == 0x00cf
                           0000CF   556 _TF2	=	0x00cf
                           0000DF   557 G$CF$0_0$0 == 0x00df
                           0000DF   558 _CF	=	0x00df
                           0000DE   559 G$CR$0_0$0 == 0x00de
                           0000DE   560 _CR	=	0x00de
                           0000DC   561 G$CCF4$0_0$0 == 0x00dc
                           0000DC   562 _CCF4	=	0x00dc
                           0000DB   563 G$CCF3$0_0$0 == 0x00db
                           0000DB   564 _CCF3	=	0x00db
                           0000DA   565 G$CCF2$0_0$0 == 0x00da
                           0000DA   566 _CCF2	=	0x00da
                           0000D9   567 G$CCF1$0_0$0 == 0x00d9
                           0000D9   568 _CCF1	=	0x00d9
                           0000D8   569 G$CCF0$0_0$0 == 0x00d8
                           0000D8   570 _CCF0	=	0x00d8
                           0000AE   571 G$EC$0_0$0 == 0x00ae
                           0000AE   572 _EC	=	0x00ae
                           0000BE   573 G$PPCL$0_0$0 == 0x00be
                           0000BE   574 _PPCL	=	0x00be
                           0000BD   575 G$PT2L$0_0$0 == 0x00bd
                           0000BD   576 _PT2L	=	0x00bd
                           0000BC   577 G$PSL$0_0$0 == 0x00bc
                           0000BC   578 _PSL	=	0x00bc
                           0000BB   579 G$PT1L$0_0$0 == 0x00bb
                           0000BB   580 _PT1L	=	0x00bb
                           0000BA   581 G$PX1L$0_0$0 == 0x00ba
                           0000BA   582 _PX1L	=	0x00ba
                           0000B9   583 G$PT0L$0_0$0 == 0x00b9
                           0000B9   584 _PT0L	=	0x00b9
                           0000B8   585 G$PX0L$0_0$0 == 0x00b8
                           0000B8   586 _PX0L	=	0x00b8
                           0000C0   587 G$P4_0$0_0$0 == 0x00c0
                           0000C0   588 _P4_0	=	0x00c0
                           0000C1   589 G$P4_1$0_0$0 == 0x00c1
                           0000C1   590 _P4_1	=	0x00c1
                           0000C2   591 G$P4_2$0_0$0 == 0x00c2
                           0000C2   592 _P4_2	=	0x00c2
                           0000C3   593 G$P4_3$0_0$0 == 0x00c3
                           0000C3   594 _P4_3	=	0x00c3
                           0000C4   595 G$P4_4$0_0$0 == 0x00c4
                           0000C4   596 _P4_4	=	0x00c4
                           0000C5   597 G$P4_5$0_0$0 == 0x00c5
                           0000C5   598 _P4_5	=	0x00c5
                           0000C6   599 G$P4_6$0_0$0 == 0x00c6
                           0000C6   600 _P4_6	=	0x00c6
                           0000C7   601 G$P4_7$0_0$0 == 0x00c7
                           0000C7   602 _P4_7	=	0x00c7
                           0000E8   603 G$P5_0$0_0$0 == 0x00e8
                           0000E8   604 _P5_0	=	0x00e8
                           0000E9   605 G$P5_1$0_0$0 == 0x00e9
                           0000E9   606 _P5_1	=	0x00e9
                           0000EA   607 G$P5_2$0_0$0 == 0x00ea
                           0000EA   608 _P5_2	=	0x00ea
                           0000EB   609 G$P5_3$0_0$0 == 0x00eb
                           0000EB   610 _P5_3	=	0x00eb
                           0000EC   611 G$P5_4$0_0$0 == 0x00ec
                           0000EC   612 _P5_4	=	0x00ec
                           0000ED   613 G$P5_5$0_0$0 == 0x00ed
                           0000ED   614 _P5_5	=	0x00ed
                           0000EE   615 G$P5_6$0_0$0 == 0x00ee
                           0000EE   616 _P5_6	=	0x00ee
                           0000EF   617 G$P5_7$0_0$0 == 0x00ef
                           0000EF   618 _P5_7	=	0x00ef
                                    619 ;--------------------------------------------------------
                                    620 ; overlayable register banks
                                    621 ;--------------------------------------------------------
                                    622 	.area REG_BANK_0	(REL,OVR,DATA)
      000000                        623 	.ds 8
                                    624 ;--------------------------------------------------------
                                    625 ; internal ram data
                                    626 ;--------------------------------------------------------
                                    627 	.area DSEG    (DATA)
                                    628 ;--------------------------------------------------------
                                    629 ; overlayable items in internal ram 
                                    630 ;--------------------------------------------------------
                                    631 	.area	OSEG    (OVR,DATA)
                           000000   632 LFunction.strtola$sloc0$0_1$0==.
      000000                        633 _strtola_sloc0_1_0:
      000000                        634 	.ds 2
                                    635 ;--------------------------------------------------------
                                    636 ; indirectly addressable internal ram data
                                    637 ;--------------------------------------------------------
                                    638 	.area ISEG    (DATA)
                                    639 ;--------------------------------------------------------
                                    640 ; absolute internal ram data
                                    641 ;--------------------------------------------------------
                                    642 	.area IABS    (ABS,DATA)
                                    643 	.area IABS    (ABS,DATA)
                                    644 ;--------------------------------------------------------
                                    645 ; bit data
                                    646 ;--------------------------------------------------------
                                    647 	.area BSEG    (BIT)
                                    648 ;--------------------------------------------------------
                                    649 ; paged external ram data
                                    650 ;--------------------------------------------------------
                                    651 	.area PSEG    (PAG,XDATA)
                                    652 ;--------------------------------------------------------
                                    653 ; external ram data
                                    654 ;--------------------------------------------------------
                                    655 	.area XSEG    (XDATA)
                           000000   656 G$block$0_0$0==.
      000000                        657 _block::
      000000                        658 	.ds 1
                           000001   659 G$page$0_0$0==.
      000001                        660 _page::
      000001                        661 	.ds 1
                           000002   662 LFunction.strtola$q$1_0$27==.
      000002                        663 _strtola_q_65536_27:
      000002                        664 	.ds 3
                           000005   665 LFunction.strtola$i$1_0$28==.
      000005                        666 _strtola_i_65536_28:
      000005                        667 	.ds 1
                           000006   668 LFunction.strtola$a$1_0$28==.
      000006                        669 _strtola_a_65536_28:
      000006                        670 	.ds 1
                           000007   671 LFunction.putchar$c$1_0$36==.
      000007                        672 _putchar_c_65536_36:
      000007                        673 	.ds 2
                           000009   674 LFunction.getstr_addr$buffer_char$1_0$39==.
      000009                        675 _getstr_addr_buffer_char_65536_39:
      000009                        676 	.ds 10
                           000013   677 LFunction.getstr_addr$i$1_0$39==.
      000013                        678 _getstr_addr_i_65536_39:
      000013                        679 	.ds 2
                           000015   680 LFunction.getstr_addr$comp$1_0$39==.
      000015                        681 _getstr_addr_comp_65536_39:
      000015                        682 	.ds 1
                           000016   683 LFunction.getstr_data$buffer_char$1_0$54==.
      000016                        684 _getstr_data_buffer_char_65536_54:
      000016                        685 	.ds 10
                           000020   686 LFunction.getstr_data$i$1_0$54==.
      000020                        687 _getstr_data_i_65536_54:
      000020                        688 	.ds 2
                                    689 ;--------------------------------------------------------
                                    690 ; absolute external ram data
                                    691 ;--------------------------------------------------------
                                    692 	.area XABS    (ABS,XDATA)
                                    693 ;--------------------------------------------------------
                                    694 ; external initialized ram data
                                    695 ;--------------------------------------------------------
                                    696 	.area XISEG   (XDATA)
                                    697 	.area HOME    (CODE)
                                    698 	.area GSINIT0 (CODE)
                                    699 	.area GSINIT1 (CODE)
                                    700 	.area GSINIT2 (CODE)
                                    701 	.area GSINIT3 (CODE)
                                    702 	.area GSINIT4 (CODE)
                                    703 	.area GSINIT5 (CODE)
                                    704 	.area GSINIT  (CODE)
                                    705 	.area GSFINAL (CODE)
                                    706 	.area CSEG    (CODE)
                                    707 ;--------------------------------------------------------
                                    708 ; global & static initialisations
                                    709 ;--------------------------------------------------------
                                    710 	.area HOME    (CODE)
                                    711 	.area GSINIT  (CODE)
                                    712 	.area GSFINAL (CODE)
                                    713 	.area GSINIT  (CODE)
                                    714 ;--------------------------------------------------------
                                    715 ; Home
                                    716 ;--------------------------------------------------------
                                    717 	.area HOME    (CODE)
                                    718 	.area HOME    (CODE)
                                    719 ;--------------------------------------------------------
                                    720 ; code
                                    721 ;--------------------------------------------------------
                                    722 	.area CSEG    (CODE)
                                    723 ;------------------------------------------------------------
                                    724 ;Allocation info for local variables in function 'delay'
                                    725 ;------------------------------------------------------------
                                    726 ;i                         Allocated with name '_delay_i_65536_25'
                                    727 ;------------------------------------------------------------
                           000000   728 	G$delay$0$0 ==.
                           000000   729 	C$Function.c$8$0_0$25 ==.
                                    730 ;	Function.c:8: void delay()
                                    731 ;	-----------------------------------------
                                    732 ;	 function delay
                                    733 ;	-----------------------------------------
      000000                        734 _delay:
                           000007   735 	ar7 = 0x07
                           000006   736 	ar6 = 0x06
                           000005   737 	ar5 = 0x05
                           000004   738 	ar4 = 0x04
                           000003   739 	ar3 = 0x03
                           000002   740 	ar2 = 0x02
                           000001   741 	ar1 = 0x01
                           000000   742 	ar0 = 0x00
                           000000   743 	C$Function.c$10$1_0$25 ==.
                                    744 ;	Function.c:10: while(i!=1000)
      000000 7E 00            [12]  745 	mov	r6,#0x00
      000002 7F 00            [12]  746 	mov	r7,#0x00
      000004                        747 00101$:
      000004 BE E8 05         [24]  748 	cjne	r6,#0xe8,00115$
      000007 BF 03 02         [24]  749 	cjne	r7,#0x03,00115$
      00000A 80 07            [24]  750 	sjmp	00104$
      00000C                        751 00115$:
                           00000C   752 	C$Function.c$12$2_0$26 ==.
                                    753 ;	Function.c:12: ++i;
      00000C 0E               [12]  754 	inc	r6
      00000D BE 00 F4         [24]  755 	cjne	r6,#0x00,00101$
      000010 0F               [12]  756 	inc	r7
      000011 80 F1            [24]  757 	sjmp	00101$
      000013                        758 00104$:
                           000013   759 	C$Function.c$14$1_0$25 ==.
                                    760 ;	Function.c:14: }
                           000013   761 	C$Function.c$14$1_0$25 ==.
                           000013   762 	XG$delay$0$0 ==.
      000013 22               [24]  763 	ret
                                    764 ;------------------------------------------------------------
                                    765 ;Allocation info for local variables in function 'strtola'
                                    766 ;------------------------------------------------------------
                                    767 ;q                         Allocated with name '_strtola_q_65536_27'
                                    768 ;i                         Allocated with name '_strtola_i_65536_28'
                                    769 ;a                         Allocated with name '_strtola_a_65536_28'
                                    770 ;res                       Allocated to registers r6 r7 
                                    771 ;sloc0                     Allocated with name '_strtola_sloc0_1_0'
                                    772 ;------------------------------------------------------------
                           000014   773 	G$strtola$0$0 ==.
                           000014   774 	C$Function.c$15$1_0$28 ==.
                                    775 ;	Function.c:15: uint16_t strtola(int *q)
                                    776 ;	-----------------------------------------
                                    777 ;	 function strtola
                                    778 ;	-----------------------------------------
      000014                        779 _strtola:
      000014 AF F0            [24]  780 	mov	r7,b
      000016 AE 83            [24]  781 	mov	r6,dph
      000018 E5 82            [12]  782 	mov	a,dpl
      00001A 90r00r02         [24]  783 	mov	dptr,#_strtola_q_65536_27
      00001D F0               [24]  784 	movx	@dptr,a
      00001E EE               [12]  785 	mov	a,r6
      00001F A3               [24]  786 	inc	dptr
      000020 F0               [24]  787 	movx	@dptr,a
      000021 EF               [12]  788 	mov	a,r7
      000022 A3               [24]  789 	inc	dptr
      000023 F0               [24]  790 	movx	@dptr,a
                           000024   791 	C$Function.c$16$2_0$28 ==.
                                    792 ;	Function.c:16: {   volatile uint8_t i=0,a;
      000024 90r00r05         [24]  793 	mov	dptr,#_strtola_i_65536_28
      000027 E4               [12]  794 	clr	a
      000028 F0               [24]  795 	movx	@dptr,a
                           000029   796 	C$Function.c$17$2_0$28 ==.
                                    797 ;	Function.c:17: __data uint16_t res=0;
      000029 7E 00            [12]  798 	mov	r6,#0x00
      00002B 7F 00            [12]  799 	mov	r7,#0x00
                           00002D   800 	C$Function.c$18$1_0$28 ==.
                                    801 ;	Function.c:18: page=0;
      00002D 90r00r01         [24]  802 	mov	dptr,#_page
      000030 F0               [24]  803 	movx	@dptr,a
                           000031   804 	C$Function.c$19$1_0$28 ==.
                                    805 ;	Function.c:19: do
      000031 90r00r02         [24]  806 	mov	dptr,#_strtola_q_65536_27
      000034 E0               [24]  807 	movx	a,@dptr
      000035 FB               [12]  808 	mov	r3,a
      000036 A3               [24]  809 	inc	dptr
      000037 E0               [24]  810 	movx	a,@dptr
      000038 FC               [12]  811 	mov	r4,a
      000039 A3               [24]  812 	inc	dptr
      00003A E0               [24]  813 	movx	a,@dptr
      00003B FD               [12]  814 	mov	r5,a
      00003C                        815 00117$:
                           00003C   816 	C$Function.c$20$2_0$29 ==.
                                    817 ;	Function.c:20: {   if(*q>='A' && *q <='F')
      00003C 8B 82            [24]  818 	mov	dpl,r3
      00003E 8C 83            [24]  819 	mov	dph,r4
      000040 8D F0            [24]  820 	mov	b,r5
      000042 12r00r00         [24]  821 	lcall	__gptrget
      000045 F9               [12]  822 	mov	r1,a
      000046 A3               [24]  823 	inc	dptr
      000047 12r00r00         [24]  824 	lcall	__gptrget
      00004A FA               [12]  825 	mov	r2,a
      00004B C3               [12]  826 	clr	c
      00004C E9               [12]  827 	mov	a,r1
      00004D 94 41            [12]  828 	subb	a,#0x41
      00004F EA               [12]  829 	mov	a,r2
      000050 64 80            [12]  830 	xrl	a,#0x80
      000052 94 80            [12]  831 	subb	a,#0x80
      000054 40 17            [24]  832 	jc	00110$
      000056 74 46            [12]  833 	mov	a,#0x46
      000058 99               [12]  834 	subb	a,r1
      000059 74 80            [12]  835 	mov	a,#(0x00 ^ 0x80)
      00005B 8A F0            [24]  836 	mov	b,r2
      00005D 63 F0 80         [24]  837 	xrl	b,#0x80
      000060 95 F0            [12]  838 	subb	a,b
      000062 40 09            [24]  839 	jc	00110$
                           000064   840 	C$Function.c$22$3_0$30 ==.
                                    841 ;	Function.c:22: a=*q-55;
      000064 E9               [12]  842 	mov	a,r1
      000065 24 C9            [12]  843 	add	a,#0xc9
      000067 90r00r06         [24]  844 	mov	dptr,#_strtola_a_65536_28
      00006A F0               [24]  845 	movx	@dptr,a
      00006B 80 67            [24]  846 	sjmp	00111$
      00006D                        847 00110$:
                           00006D   848 	C$Function.c$24$2_0$29 ==.
                                    849 ;	Function.c:24: else if(*q>='a' && *q<='f')
      00006D 8B 82            [24]  850 	mov	dpl,r3
      00006F 8C 83            [24]  851 	mov	dph,r4
      000071 8D F0            [24]  852 	mov	b,r5
      000073 12r00r00         [24]  853 	lcall	__gptrget
      000076 F9               [12]  854 	mov	r1,a
      000077 A3               [24]  855 	inc	dptr
      000078 12r00r00         [24]  856 	lcall	__gptrget
      00007B FA               [12]  857 	mov	r2,a
      00007C C3               [12]  858 	clr	c
      00007D E9               [12]  859 	mov	a,r1
      00007E 94 61            [12]  860 	subb	a,#0x61
      000080 EA               [12]  861 	mov	a,r2
      000081 64 80            [12]  862 	xrl	a,#0x80
      000083 94 80            [12]  863 	subb	a,#0x80
      000085 40 17            [24]  864 	jc	00106$
      000087 74 66            [12]  865 	mov	a,#0x66
      000089 99               [12]  866 	subb	a,r1
      00008A 74 80            [12]  867 	mov	a,#(0x00 ^ 0x80)
      00008C 8A F0            [24]  868 	mov	b,r2
      00008E 63 F0 80         [24]  869 	xrl	b,#0x80
      000091 95 F0            [12]  870 	subb	a,b
      000093 40 09            [24]  871 	jc	00106$
                           000095   872 	C$Function.c$26$3_0$31 ==.
                                    873 ;	Function.c:26: a=*q-87;
      000095 E9               [12]  874 	mov	a,r1
      000096 24 A9            [12]  875 	add	a,#0xa9
      000098 90r00r06         [24]  876 	mov	dptr,#_strtola_a_65536_28
      00009B F0               [24]  877 	movx	@dptr,a
      00009C 80 36            [24]  878 	sjmp	00111$
      00009E                        879 00106$:
                           00009E   880 	C$Function.c$28$2_0$29 ==.
                                    881 ;	Function.c:28: else if(*q>='0' && *q<='9')
      00009E 8B 82            [24]  882 	mov	dpl,r3
      0000A0 8C 83            [24]  883 	mov	dph,r4
      0000A2 8D F0            [24]  884 	mov	b,r5
      0000A4 12r00r00         [24]  885 	lcall	__gptrget
      0000A7 F9               [12]  886 	mov	r1,a
      0000A8 A3               [24]  887 	inc	dptr
      0000A9 12r00r00         [24]  888 	lcall	__gptrget
      0000AC FA               [12]  889 	mov	r2,a
      0000AD C3               [12]  890 	clr	c
      0000AE E9               [12]  891 	mov	a,r1
      0000AF 94 30            [12]  892 	subb	a,#0x30
      0000B1 EA               [12]  893 	mov	a,r2
      0000B2 64 80            [12]  894 	xrl	a,#0x80
      0000B4 94 80            [12]  895 	subb	a,#0x80
      0000B6 40 17            [24]  896 	jc	00102$
      0000B8 74 39            [12]  897 	mov	a,#0x39
      0000BA 99               [12]  898 	subb	a,r1
      0000BB 74 80            [12]  899 	mov	a,#(0x00 ^ 0x80)
      0000BD 8A F0            [24]  900 	mov	b,r2
      0000BF 63 F0 80         [24]  901 	xrl	b,#0x80
      0000C2 95 F0            [12]  902 	subb	a,b
      0000C4 40 09            [24]  903 	jc	00102$
                           0000C6   904 	C$Function.c$30$3_0$32 ==.
                                    905 ;	Function.c:30: a=*q-'0';
      0000C6 E9               [12]  906 	mov	a,r1
      0000C7 24 D0            [12]  907 	add	a,#0xd0
      0000C9 90r00r06         [24]  908 	mov	dptr,#_strtola_a_65536_28
      0000CC F0               [24]  909 	movx	@dptr,a
      0000CD 80 05            [24]  910 	sjmp	00111$
      0000CF                        911 00102$:
                           0000CF   912 	C$Function.c$34$3_0$33 ==.
                                    913 ;	Function.c:34: a=0;
      0000CF 90r00r06         [24]  914 	mov	dptr,#_strtola_a_65536_28
      0000D2 E4               [12]  915 	clr	a
      0000D3 F0               [24]  916 	movx	@dptr,a
      0000D4                        917 00111$:
                           0000D4   918 	C$Function.c$36$2_0$29 ==.
                                    919 ;	Function.c:36: if(i==0)
      0000D4 90r00r05         [24]  920 	mov	dptr,#_strtola_i_65536_28
      0000D7 E0               [24]  921 	movx	a,@dptr
      0000D8 70 08            [24]  922 	jnz	00114$
                           0000DA   923 	C$Function.c$38$3_0$34 ==.
                                    924 ;	Function.c:38: block=a;
      0000DA 90r00r06         [24]  925 	mov	dptr,#_strtola_a_65536_28
      0000DD E0               [24]  926 	movx	a,@dptr
      0000DE 90r00r00         [24]  927 	mov	dptr,#_block
      0000E1 F0               [24]  928 	movx	@dptr,a
      0000E2                        929 00114$:
                           0000E2   930 	C$Function.c$40$2_0$29 ==.
                                    931 ;	Function.c:40: if(i>0)
      0000E2 90r00r05         [24]  932 	mov	dptr,#_strtola_i_65536_28
      0000E5 E0               [24]  933 	movx	a,@dptr
      0000E6 60 12            [24]  934 	jz	00116$
                           0000E8   935 	C$Function.c$42$3_0$35 ==.
                                    936 ;	Function.c:42: page=(page*16)+a;
      0000E8 90r00r01         [24]  937 	mov	dptr,#_page
      0000EB E0               [24]  938 	movx	a,@dptr
      0000EC C4               [12]  939 	swap	a
      0000ED 54 F0            [12]  940 	anl	a,#0xf0
      0000EF FA               [12]  941 	mov	r2,a
      0000F0 90r00r06         [24]  942 	mov	dptr,#_strtola_a_65536_28
      0000F3 E0               [24]  943 	movx	a,@dptr
      0000F4 F9               [12]  944 	mov	r1,a
      0000F5 90r00r01         [24]  945 	mov	dptr,#_page
      0000F8 2A               [12]  946 	add	a,r2
      0000F9 F0               [24]  947 	movx	@dptr,a
      0000FA                        948 00116$:
                           0000FA   949 	C$Function.c$45$2_0$29 ==.
                                    950 ;	Function.c:45: res=(res*16)+a;   // Logic from C99 basic itoa function
      0000FA 8E*00            [24]  951 	mov	_strtola_sloc0_1_0,r6
      0000FC EF               [12]  952 	mov	a,r7
      0000FD C4               [12]  953 	swap	a
      0000FE 54 F0            [12]  954 	anl	a,#0xf0
      000100 C5*00            [12]  955 	xch	a,_strtola_sloc0_1_0
      000102 C4               [12]  956 	swap	a
      000103 C5*00            [12]  957 	xch	a,_strtola_sloc0_1_0
      000105 65*00            [12]  958 	xrl	a,_strtola_sloc0_1_0
      000107 C5*00            [12]  959 	xch	a,_strtola_sloc0_1_0
      000109 54 F0            [12]  960 	anl	a,#0xf0
      00010B C5*00            [12]  961 	xch	a,_strtola_sloc0_1_0
      00010D 65*00            [12]  962 	xrl	a,_strtola_sloc0_1_0
      00010F F5*01            [12]  963 	mov	(_strtola_sloc0_1_0 + 1),a
      000111 90r00r06         [24]  964 	mov	dptr,#_strtola_a_65536_28
      000114 E0               [24]  965 	movx	a,@dptr
      000115 F8               [12]  966 	mov	r0,a
      000116 7A 00            [12]  967 	mov	r2,#0x00
      000118 25*00            [12]  968 	add	a,_strtola_sloc0_1_0
      00011A FE               [12]  969 	mov	r6,a
      00011B EA               [12]  970 	mov	a,r2
      00011C 35*01            [12]  971 	addc	a,(_strtola_sloc0_1_0 + 1)
      00011E FF               [12]  972 	mov	r7,a
                           00011F   973 	C$Function.c$46$2_0$29 ==.
                                    974 ;	Function.c:46: *q++;
      00011F 74 02            [12]  975 	mov	a,#0x02
      000121 2B               [12]  976 	add	a,r3
      000122 FB               [12]  977 	mov	r3,a
      000123 E4               [12]  978 	clr	a
      000124 3C               [12]  979 	addc	a,r4
      000125 FC               [12]  980 	mov	r4,a
      000126 90r00r02         [24]  981 	mov	dptr,#_strtola_q_65536_27
      000129 EB               [12]  982 	mov	a,r3
      00012A F0               [24]  983 	movx	@dptr,a
      00012B EC               [12]  984 	mov	a,r4
      00012C A3               [24]  985 	inc	dptr
      00012D F0               [24]  986 	movx	@dptr,a
      00012E ED               [12]  987 	mov	a,r5
      00012F A3               [24]  988 	inc	dptr
      000130 F0               [24]  989 	movx	@dptr,a
                           000131   990 	C$Function.c$47$2_0$29 ==.
                                    991 ;	Function.c:47: i++;
      000131 90r00r05         [24]  992 	mov	dptr,#_strtola_i_65536_28
      000134 E0               [24]  993 	movx	a,@dptr
      000135 04               [12]  994 	inc	a
      000136 F0               [24]  995 	movx	@dptr,a
                           000137   996 	C$Function.c$48$1_0$28 ==.
                                    997 ;	Function.c:48: }while(*q!=13);
      000137 8B 82            [24]  998 	mov	dpl,r3
      000139 8C 83            [24]  999 	mov	dph,r4
      00013B 8D F0            [24] 1000 	mov	b,r5
      00013D 12r00r00         [24] 1001 	lcall	__gptrget
      000140 F9               [12] 1002 	mov	r1,a
      000141 A3               [24] 1003 	inc	dptr
      000142 12r00r00         [24] 1004 	lcall	__gptrget
      000145 FA               [12] 1005 	mov	r2,a
      000146 B9 0D 05         [24] 1006 	cjne	r1,#0x0d,00171$
      000149 BA 00 02         [24] 1007 	cjne	r2,#0x00,00171$
      00014C 80 03            [24] 1008 	sjmp	00172$
      00014E                       1009 00171$:
      00014E 02r00r3C         [24] 1010 	ljmp	00117$
      000151                       1011 00172$:
                           000151  1012 	C$Function.c$49$1_0$28 ==.
                                   1013 ;	Function.c:49: return res;
      000151 90r00r02         [24] 1014 	mov	dptr,#_strtola_q_65536_27
      000154 EB               [12] 1015 	mov	a,r3
      000155 F0               [24] 1016 	movx	@dptr,a
      000156 EC               [12] 1017 	mov	a,r4
      000157 A3               [24] 1018 	inc	dptr
      000158 F0               [24] 1019 	movx	@dptr,a
      000159 ED               [12] 1020 	mov	a,r5
      00015A A3               [24] 1021 	inc	dptr
      00015B F0               [24] 1022 	movx	@dptr,a
      00015C 8E 82            [24] 1023 	mov	dpl,r6
      00015E 8F 83            [24] 1024 	mov	dph,r7
                           000160  1025 	C$Function.c$50$1_0$28 ==.
                                   1026 ;	Function.c:50: }
                           000160  1027 	C$Function.c$50$1_0$28 ==.
                           000160  1028 	XG$strtola$0$0 ==.
      000160 22               [24] 1029 	ret
                                   1030 ;------------------------------------------------------------
                                   1031 ;Allocation info for local variables in function 'putchar'
                                   1032 ;------------------------------------------------------------
                                   1033 ;c                         Allocated with name '_putchar_c_65536_36'
                                   1034 ;------------------------------------------------------------
                           000161  1035 	G$putchar$0$0 ==.
                           000161  1036 	C$Function.c$51$1_0$37 ==.
                                   1037 ;	Function.c:51: int putchar(int c)
                                   1038 ;	-----------------------------------------
                                   1039 ;	 function putchar
                                   1040 ;	-----------------------------------------
      000161                       1041 _putchar:
      000161 AF 83            [24] 1042 	mov	r7,dph
      000163 E5 82            [12] 1043 	mov	a,dpl
      000165 90r00r07         [24] 1044 	mov	dptr,#_putchar_c_65536_36
      000168 F0               [24] 1045 	movx	@dptr,a
      000169 EF               [12] 1046 	mov	a,r7
      00016A A3               [24] 1047 	inc	dptr
      00016B F0               [24] 1048 	movx	@dptr,a
                           00016C  1049 	C$Function.c$53$1_0$37 ==.
                                   1050 ;	Function.c:53: while(!TI);                         // checking the TI interrupt bit, when it sets, the data is sent
      00016C                       1051 00101$:
                           00016C  1052 	C$Function.c$54$1_0$37 ==.
                                   1053 ;	Function.c:54: TI=0;
                                   1054 ;	assignBit
      00016C 10 99 02         [24] 1055 	jbc	_TI,00114$
      00016F 80 FB            [24] 1056 	sjmp	00101$
      000171                       1057 00114$:
                           000171  1058 	C$Function.c$55$1_0$37 ==.
                                   1059 ;	Function.c:55: SBUF = c;
      000171 90r00r07         [24] 1060 	mov	dptr,#_putchar_c_65536_36
      000174 E0               [24] 1061 	movx	a,@dptr
      000175 FE               [12] 1062 	mov	r6,a
      000176 A3               [24] 1063 	inc	dptr
      000177 E0               [24] 1064 	movx	a,@dptr
      000178 8E 99            [24] 1065 	mov	_SBUF,r6
                           00017A  1066 	C$Function.c$56$1_0$37 ==.
                                   1067 ;	Function.c:56: return 1;
      00017A 90 00 01         [24] 1068 	mov	dptr,#0x0001
                           00017D  1069 	C$Function.c$57$1_0$37 ==.
                                   1070 ;	Function.c:57: }
                           00017D  1071 	C$Function.c$57$1_0$37 ==.
                           00017D  1072 	XG$putchar$0$0 ==.
      00017D 22               [24] 1073 	ret
                                   1074 ;------------------------------------------------------------
                                   1075 ;Allocation info for local variables in function 'getchar'
                                   1076 ;------------------------------------------------------------
                           00017E  1077 	G$getchar$0$0 ==.
                           00017E  1078 	C$Function.c$58$1_0$38 ==.
                                   1079 ;	Function.c:58: int getchar()
                                   1080 ;	-----------------------------------------
                                   1081 ;	 function getchar
                                   1082 ;	-----------------------------------------
      00017E                       1083 _getchar:
                           00017E  1084 	C$Function.c$60$1_0$38 ==.
                                   1085 ;	Function.c:60: while(!RI);
      00017E                       1086 00101$:
                           00017E  1087 	C$Function.c$62$1_0$38 ==.
                                   1088 ;	Function.c:62: RI=0;
                                   1089 ;	assignBit
      00017E 10 98 02         [24] 1090 	jbc	_RI,00114$
      000181 80 FB            [24] 1091 	sjmp	00101$
      000183                       1092 00114$:
                           000183  1093 	C$Function.c$63$1_0$38 ==.
                                   1094 ;	Function.c:63: return SBUF;
      000183 AE 99            [24] 1095 	mov	r6,_SBUF
      000185 7F 00            [12] 1096 	mov	r7,#0x00
      000187 8E 82            [24] 1097 	mov	dpl,r6
      000189 8F 83            [24] 1098 	mov	dph,r7
                           00018B  1099 	C$Function.c$64$1_0$38 ==.
                                   1100 ;	Function.c:64: }
                           00018B  1101 	C$Function.c$64$1_0$38 ==.
                           00018B  1102 	XG$getchar$0$0 ==.
      00018B 22               [24] 1103 	ret
                                   1104 ;------------------------------------------------------------
                                   1105 ;Allocation info for local variables in function 'getstr_addr'
                                   1106 ;------------------------------------------------------------
                                   1107 ;buffer_char               Allocated with name '_getstr_addr_buffer_char_65536_39'
                                   1108 ;i                         Allocated with name '_getstr_addr_i_65536_39'
                                   1109 ;res                       Allocated with name '_getstr_addr_res_65536_39'
                                   1110 ;comp                      Allocated with name '_getstr_addr_comp_65536_39'
                                   1111 ;j                         Allocated with name '_getstr_addr_j_196608_47'
                                   1112 ;k                         Allocated with name '_getstr_addr_k_327680_49'
                                   1113 ;------------------------------------------------------------
                           00018C  1114 	G$getstr_addr$0$0 ==.
                           00018C  1115 	C$Function.c$65$1_0$39 ==.
                                   1116 ;	Function.c:65: uint16_t getstr_addr()
                                   1117 ;	-----------------------------------------
                                   1118 ;	 function getstr_addr
                                   1119 ;	-----------------------------------------
      00018C                       1120 _getstr_addr:
                           00018C  1121 	C$Function.c$67$2_0$39 ==.
                                   1122 ;	Function.c:67: volatile int buffer_char[5]={0},i=0;
      00018C 90r00r09         [24] 1123 	mov	dptr,#_getstr_addr_buffer_char_65536_39
      00018F E4               [12] 1124 	clr	a
      000190 F0               [24] 1125 	movx	@dptr,a
      000191 A3               [24] 1126 	inc	dptr
      000192 F0               [24] 1127 	movx	@dptr,a
      000193 90r00r0B         [24] 1128 	mov	dptr,#(_getstr_addr_buffer_char_65536_39 + 0x0002)
      000196 F0               [24] 1129 	movx	@dptr,a
      000197 A3               [24] 1130 	inc	dptr
      000198 F0               [24] 1131 	movx	@dptr,a
      000199 90r00r0D         [24] 1132 	mov	dptr,#(_getstr_addr_buffer_char_65536_39 + 0x0004)
      00019C F0               [24] 1133 	movx	@dptr,a
      00019D A3               [24] 1134 	inc	dptr
      00019E F0               [24] 1135 	movx	@dptr,a
      00019F 90r00r0F         [24] 1136 	mov	dptr,#(_getstr_addr_buffer_char_65536_39 + 0x0006)
      0001A2 F0               [24] 1137 	movx	@dptr,a
      0001A3 A3               [24] 1138 	inc	dptr
      0001A4 F0               [24] 1139 	movx	@dptr,a
      0001A5 90r00r11         [24] 1140 	mov	dptr,#(_getstr_addr_buffer_char_65536_39 + 0x0008)
      0001A8 F0               [24] 1141 	movx	@dptr,a
      0001A9 A3               [24] 1142 	inc	dptr
      0001AA F0               [24] 1143 	movx	@dptr,a
      0001AB 90r00r13         [24] 1144 	mov	dptr,#_getstr_addr_i_65536_39
      0001AE F0               [24] 1145 	movx	@dptr,a
      0001AF A3               [24] 1146 	inc	dptr
      0001B0 F0               [24] 1147 	movx	@dptr,a
                           0001B1  1148 	C$Function.c$69$2_0$39 ==.
                                   1149 ;	Function.c:69: volatile uint8_t comp=0;
      0001B1 90r00r15         [24] 1150 	mov	dptr,#_getstr_addr_comp_65536_39
      0001B4 F0               [24] 1151 	movx	@dptr,a
                           0001B5  1152 	C$Function.c$72$2_0$40 ==.
                                   1153 ;	Function.c:72: do
      0001B5                       1154 00114$:
                           0001B5  1155 	C$Function.c$74$3_0$41 ==.
                                   1156 ;	Function.c:74: buffer_char[i]=getchar();
      0001B5 90r00r13         [24] 1157 	mov	dptr,#_getstr_addr_i_65536_39
      0001B8 E0               [24] 1158 	movx	a,@dptr
      0001B9 FE               [12] 1159 	mov	r6,a
      0001BA A3               [24] 1160 	inc	dptr
      0001BB E0               [24] 1161 	movx	a,@dptr
      0001BC FF               [12] 1162 	mov	r7,a
      0001BD EE               [12] 1163 	mov	a,r6
      0001BE 2E               [12] 1164 	add	a,r6
      0001BF FE               [12] 1165 	mov	r6,a
      0001C0 EF               [12] 1166 	mov	a,r7
      0001C1 33               [12] 1167 	rlc	a
      0001C2 FF               [12] 1168 	mov	r7,a
      0001C3 EE               [12] 1169 	mov	a,r6
      0001C4 24r09            [12] 1170 	add	a,#_getstr_addr_buffer_char_65536_39
      0001C6 FE               [12] 1171 	mov	r6,a
      0001C7 EF               [12] 1172 	mov	a,r7
      0001C8 34s00            [12] 1173 	addc	a,#(_getstr_addr_buffer_char_65536_39 >> 8)
      0001CA FF               [12] 1174 	mov	r7,a
      0001CB C0 07            [24] 1175 	push	ar7
      0001CD C0 06            [24] 1176 	push	ar6
      0001CF 12r01r7E         [24] 1177 	lcall	_getchar
      0001D2 AC 82            [24] 1178 	mov	r4,dpl
      0001D4 AD 83            [24] 1179 	mov	r5,dph
      0001D6 D0 06            [24] 1180 	pop	ar6
      0001D8 D0 07            [24] 1181 	pop	ar7
      0001DA 8E 82            [24] 1182 	mov	dpl,r6
      0001DC 8F 83            [24] 1183 	mov	dph,r7
      0001DE EC               [12] 1184 	mov	a,r4
      0001DF F0               [24] 1185 	movx	@dptr,a
      0001E0 ED               [12] 1186 	mov	a,r5
      0001E1 A3               [24] 1187 	inc	dptr
      0001E2 F0               [24] 1188 	movx	@dptr,a
                           0001E3  1189 	C$Function.c$75$3_0$41 ==.
                                   1190 ;	Function.c:75: if((buffer_char[i]>='0' && buffer_char[i]<='9')||(buffer_char[i]>='a' && buffer_char[i]<='f')||(buffer_char[i]>='A' && buffer_char[i]<='F'))
      0001E3 90r00r13         [24] 1191 	mov	dptr,#_getstr_addr_i_65536_39
      0001E6 E0               [24] 1192 	movx	a,@dptr
      0001E7 FE               [12] 1193 	mov	r6,a
      0001E8 A3               [24] 1194 	inc	dptr
      0001E9 E0               [24] 1195 	movx	a,@dptr
      0001EA FF               [12] 1196 	mov	r7,a
      0001EB EE               [12] 1197 	mov	a,r6
      0001EC 2E               [12] 1198 	add	a,r6
      0001ED FE               [12] 1199 	mov	r6,a
      0001EE EF               [12] 1200 	mov	a,r7
      0001EF 33               [12] 1201 	rlc	a
      0001F0 FF               [12] 1202 	mov	r7,a
      0001F1 EE               [12] 1203 	mov	a,r6
      0001F2 24r09            [12] 1204 	add	a,#_getstr_addr_buffer_char_65536_39
      0001F4 F5 82            [12] 1205 	mov	dpl,a
      0001F6 EF               [12] 1206 	mov	a,r7
      0001F7 34s00            [12] 1207 	addc	a,#(_getstr_addr_buffer_char_65536_39 >> 8)
      0001F9 F5 83            [12] 1208 	mov	dph,a
      0001FB E0               [24] 1209 	movx	a,@dptr
      0001FC FE               [12] 1210 	mov	r6,a
      0001FD A3               [24] 1211 	inc	dptr
      0001FE E0               [24] 1212 	movx	a,@dptr
      0001FF FF               [12] 1213 	mov	r7,a
      000200 C3               [12] 1214 	clr	c
      000201 EE               [12] 1215 	mov	a,r6
      000202 94 30            [12] 1216 	subb	a,#0x30
      000204 EF               [12] 1217 	mov	a,r7
      000205 64 80            [12] 1218 	xrl	a,#0x80
      000207 94 80            [12] 1219 	subb	a,#0x80
      000209 40 2F            [24] 1220 	jc	00109$
      00020B 90r00r13         [24] 1221 	mov	dptr,#_getstr_addr_i_65536_39
      00020E E0               [24] 1222 	movx	a,@dptr
      00020F FE               [12] 1223 	mov	r6,a
      000210 A3               [24] 1224 	inc	dptr
      000211 E0               [24] 1225 	movx	a,@dptr
      000212 FF               [12] 1226 	mov	r7,a
      000213 EE               [12] 1227 	mov	a,r6
      000214 2E               [12] 1228 	add	a,r6
      000215 FE               [12] 1229 	mov	r6,a
      000216 EF               [12] 1230 	mov	a,r7
      000217 33               [12] 1231 	rlc	a
      000218 FF               [12] 1232 	mov	r7,a
      000219 EE               [12] 1233 	mov	a,r6
      00021A 24r09            [12] 1234 	add	a,#_getstr_addr_buffer_char_65536_39
      00021C F5 82            [12] 1235 	mov	dpl,a
      00021E EF               [12] 1236 	mov	a,r7
      00021F 34s00            [12] 1237 	addc	a,#(_getstr_addr_buffer_char_65536_39 >> 8)
      000221 F5 83            [12] 1238 	mov	dph,a
      000223 E0               [24] 1239 	movx	a,@dptr
      000224 FE               [12] 1240 	mov	r6,a
      000225 A3               [24] 1241 	inc	dptr
      000226 E0               [24] 1242 	movx	a,@dptr
      000227 FF               [12] 1243 	mov	r7,a
      000228 C3               [12] 1244 	clr	c
      000229 74 39            [12] 1245 	mov	a,#0x39
      00022B 9E               [12] 1246 	subb	a,r6
      00022C 74 80            [12] 1247 	mov	a,#(0x00 ^ 0x80)
      00022E 8F F0            [24] 1248 	mov	b,r7
      000230 63 F0 80         [24] 1249 	xrl	b,#0x80
      000233 95 F0            [12] 1250 	subb	a,b
      000235 40 03            [24] 1251 	jc	00211$
      000237 02r02rE2         [24] 1252 	ljmp	00104$
      00023A                       1253 00211$:
      00023A                       1254 00109$:
      00023A 90r00r13         [24] 1255 	mov	dptr,#_getstr_addr_i_65536_39
      00023D E0               [24] 1256 	movx	a,@dptr
      00023E FE               [12] 1257 	mov	r6,a
      00023F A3               [24] 1258 	inc	dptr
      000240 E0               [24] 1259 	movx	a,@dptr
      000241 FF               [12] 1260 	mov	r7,a
      000242 EE               [12] 1261 	mov	a,r6
      000243 2E               [12] 1262 	add	a,r6
      000244 FE               [12] 1263 	mov	r6,a
      000245 EF               [12] 1264 	mov	a,r7
      000246 33               [12] 1265 	rlc	a
      000247 FF               [12] 1266 	mov	r7,a
      000248 EE               [12] 1267 	mov	a,r6
      000249 24r09            [12] 1268 	add	a,#_getstr_addr_buffer_char_65536_39
      00024B F5 82            [12] 1269 	mov	dpl,a
      00024D EF               [12] 1270 	mov	a,r7
      00024E 34s00            [12] 1271 	addc	a,#(_getstr_addr_buffer_char_65536_39 >> 8)
      000250 F5 83            [12] 1272 	mov	dph,a
      000252 E0               [24] 1273 	movx	a,@dptr
      000253 FE               [12] 1274 	mov	r6,a
      000254 A3               [24] 1275 	inc	dptr
      000255 E0               [24] 1276 	movx	a,@dptr
      000256 FF               [12] 1277 	mov	r7,a
      000257 C3               [12] 1278 	clr	c
      000258 EE               [12] 1279 	mov	a,r6
      000259 94 61            [12] 1280 	subb	a,#0x61
      00025B EF               [12] 1281 	mov	a,r7
      00025C 64 80            [12] 1282 	xrl	a,#0x80
      00025E 94 80            [12] 1283 	subb	a,#0x80
      000260 40 2C            [24] 1284 	jc	00111$
      000262 90r00r13         [24] 1285 	mov	dptr,#_getstr_addr_i_65536_39
      000265 E0               [24] 1286 	movx	a,@dptr
      000266 FE               [12] 1287 	mov	r6,a
      000267 A3               [24] 1288 	inc	dptr
      000268 E0               [24] 1289 	movx	a,@dptr
      000269 FF               [12] 1290 	mov	r7,a
      00026A EE               [12] 1291 	mov	a,r6
      00026B 2E               [12] 1292 	add	a,r6
      00026C FE               [12] 1293 	mov	r6,a
      00026D EF               [12] 1294 	mov	a,r7
      00026E 33               [12] 1295 	rlc	a
      00026F FF               [12] 1296 	mov	r7,a
      000270 EE               [12] 1297 	mov	a,r6
      000271 24r09            [12] 1298 	add	a,#_getstr_addr_buffer_char_65536_39
      000273 F5 82            [12] 1299 	mov	dpl,a
      000275 EF               [12] 1300 	mov	a,r7
      000276 34s00            [12] 1301 	addc	a,#(_getstr_addr_buffer_char_65536_39 >> 8)
      000278 F5 83            [12] 1302 	mov	dph,a
      00027A E0               [24] 1303 	movx	a,@dptr
      00027B FE               [12] 1304 	mov	r6,a
      00027C A3               [24] 1305 	inc	dptr
      00027D E0               [24] 1306 	movx	a,@dptr
      00027E FF               [12] 1307 	mov	r7,a
      00027F C3               [12] 1308 	clr	c
      000280 74 66            [12] 1309 	mov	a,#0x66
      000282 9E               [12] 1310 	subb	a,r6
      000283 74 80            [12] 1311 	mov	a,#(0x00 ^ 0x80)
      000285 8F F0            [24] 1312 	mov	b,r7
      000287 63 F0 80         [24] 1313 	xrl	b,#0x80
      00028A 95 F0            [12] 1314 	subb	a,b
      00028C 50 54            [24] 1315 	jnc	00104$
      00028E                       1316 00111$:
      00028E 90r00r13         [24] 1317 	mov	dptr,#_getstr_addr_i_65536_39
      000291 E0               [24] 1318 	movx	a,@dptr
      000292 FE               [12] 1319 	mov	r6,a
      000293 A3               [24] 1320 	inc	dptr
      000294 E0               [24] 1321 	movx	a,@dptr
      000295 FF               [12] 1322 	mov	r7,a
      000296 EE               [12] 1323 	mov	a,r6
      000297 2E               [12] 1324 	add	a,r6
      000298 FE               [12] 1325 	mov	r6,a
      000299 EF               [12] 1326 	mov	a,r7
      00029A 33               [12] 1327 	rlc	a
      00029B FF               [12] 1328 	mov	r7,a
      00029C EE               [12] 1329 	mov	a,r6
      00029D 24r09            [12] 1330 	add	a,#_getstr_addr_buffer_char_65536_39
      00029F F5 82            [12] 1331 	mov	dpl,a
      0002A1 EF               [12] 1332 	mov	a,r7
      0002A2 34s00            [12] 1333 	addc	a,#(_getstr_addr_buffer_char_65536_39 >> 8)
      0002A4 F5 83            [12] 1334 	mov	dph,a
      0002A6 E0               [24] 1335 	movx	a,@dptr
      0002A7 FE               [12] 1336 	mov	r6,a
      0002A8 A3               [24] 1337 	inc	dptr
      0002A9 E0               [24] 1338 	movx	a,@dptr
      0002AA FF               [12] 1339 	mov	r7,a
      0002AB C3               [12] 1340 	clr	c
      0002AC EE               [12] 1341 	mov	a,r6
      0002AD 94 41            [12] 1342 	subb	a,#0x41
      0002AF EF               [12] 1343 	mov	a,r7
      0002B0 64 80            [12] 1344 	xrl	a,#0x80
      0002B2 94 80            [12] 1345 	subb	a,#0x80
      0002B4 40 74            [24] 1346 	jc	00105$
      0002B6 90r00r13         [24] 1347 	mov	dptr,#_getstr_addr_i_65536_39
      0002B9 E0               [24] 1348 	movx	a,@dptr
      0002BA FE               [12] 1349 	mov	r6,a
      0002BB A3               [24] 1350 	inc	dptr
      0002BC E0               [24] 1351 	movx	a,@dptr
      0002BD FF               [12] 1352 	mov	r7,a
      0002BE EE               [12] 1353 	mov	a,r6
      0002BF 2E               [12] 1354 	add	a,r6
      0002C0 FE               [12] 1355 	mov	r6,a
      0002C1 EF               [12] 1356 	mov	a,r7
      0002C2 33               [12] 1357 	rlc	a
      0002C3 FF               [12] 1358 	mov	r7,a
      0002C4 EE               [12] 1359 	mov	a,r6
      0002C5 24r09            [12] 1360 	add	a,#_getstr_addr_buffer_char_65536_39
      0002C7 F5 82            [12] 1361 	mov	dpl,a
      0002C9 EF               [12] 1362 	mov	a,r7
      0002CA 34s00            [12] 1363 	addc	a,#(_getstr_addr_buffer_char_65536_39 >> 8)
      0002CC F5 83            [12] 1364 	mov	dph,a
      0002CE E0               [24] 1365 	movx	a,@dptr
      0002CF FE               [12] 1366 	mov	r6,a
      0002D0 A3               [24] 1367 	inc	dptr
      0002D1 E0               [24] 1368 	movx	a,@dptr
      0002D2 FF               [12] 1369 	mov	r7,a
      0002D3 C3               [12] 1370 	clr	c
      0002D4 74 46            [12] 1371 	mov	a,#0x46
      0002D6 9E               [12] 1372 	subb	a,r6
      0002D7 74 80            [12] 1373 	mov	a,#(0x00 ^ 0x80)
      0002D9 8F F0            [24] 1374 	mov	b,r7
      0002DB 63 F0 80         [24] 1375 	xrl	b,#0x80
      0002DE 95 F0            [12] 1376 	subb	a,b
      0002E0 40 48            [24] 1377 	jc	00105$
      0002E2                       1378 00104$:
                           0002E2  1379 	C$Function.c$77$4_0$42 ==.
                                   1380 ;	Function.c:77: printf_tiny("%c",buffer_char[i]);     //Getting the string value of characters one by one through uart.
      0002E2 90r00r13         [24] 1381 	mov	dptr,#_getstr_addr_i_65536_39
      0002E5 E0               [24] 1382 	movx	a,@dptr
      0002E6 FE               [12] 1383 	mov	r6,a
      0002E7 A3               [24] 1384 	inc	dptr
      0002E8 E0               [24] 1385 	movx	a,@dptr
      0002E9 FF               [12] 1386 	mov	r7,a
      0002EA EE               [12] 1387 	mov	a,r6
      0002EB 2E               [12] 1388 	add	a,r6
      0002EC FE               [12] 1389 	mov	r6,a
      0002ED EF               [12] 1390 	mov	a,r7
      0002EE 33               [12] 1391 	rlc	a
      0002EF FF               [12] 1392 	mov	r7,a
      0002F0 EE               [12] 1393 	mov	a,r6
      0002F1 24r09            [12] 1394 	add	a,#_getstr_addr_buffer_char_65536_39
      0002F3 F5 82            [12] 1395 	mov	dpl,a
      0002F5 EF               [12] 1396 	mov	a,r7
      0002F6 34s00            [12] 1397 	addc	a,#(_getstr_addr_buffer_char_65536_39 >> 8)
      0002F8 F5 83            [12] 1398 	mov	dph,a
      0002FA E0               [24] 1399 	movx	a,@dptr
      0002FB FE               [12] 1400 	mov	r6,a
      0002FC A3               [24] 1401 	inc	dptr
      0002FD E0               [24] 1402 	movx	a,@dptr
      0002FE FF               [12] 1403 	mov	r7,a
      0002FF C0 06            [24] 1404 	push	ar6
      000301 C0 07            [24] 1405 	push	ar7
      000303 74r00            [12] 1406 	mov	a,#___str_0
      000305 C0 E0            [24] 1407 	push	acc
      000307 74s00            [12] 1408 	mov	a,#(___str_0 >> 8)
      000309 C0 E0            [24] 1409 	push	acc
      00030B 12r00r00         [24] 1410 	lcall	_printf_tiny
      00030E E5 81            [12] 1411 	mov	a,sp
      000310 24 FC            [12] 1412 	add	a,#0xfc
      000312 F5 81            [12] 1413 	mov	sp,a
                           000314  1414 	C$Function.c$78$4_0$42 ==.
                                   1415 ;	Function.c:78: i++;
      000314 90r00r13         [24] 1416 	mov	dptr,#_getstr_addr_i_65536_39
      000317 E0               [24] 1417 	movx	a,@dptr
      000318 FE               [12] 1418 	mov	r6,a
      000319 A3               [24] 1419 	inc	dptr
      00031A E0               [24] 1420 	movx	a,@dptr
      00031B FF               [12] 1421 	mov	r7,a
      00031C 90r00r13         [24] 1422 	mov	dptr,#_getstr_addr_i_65536_39
      00031F 74 01            [12] 1423 	mov	a,#0x01
      000321 2E               [12] 1424 	add	a,r6
      000322 F0               [24] 1425 	movx	@dptr,a
      000323 E4               [12] 1426 	clr	a
      000324 3F               [12] 1427 	addc	a,r7
      000325 A3               [24] 1428 	inc	dptr
      000326 F0               [24] 1429 	movx	@dptr,a
      000327 02r03rA6         [24] 1430 	ljmp	00106$
      00032A                       1431 00105$:
                           00032A  1432 	C$Function.c$80$3_0$41 ==.
                                   1433 ;	Function.c:80: else if((buffer_char[i]==13))
      00032A 90r00r13         [24] 1434 	mov	dptr,#_getstr_addr_i_65536_39
      00032D E0               [24] 1435 	movx	a,@dptr
      00032E FE               [12] 1436 	mov	r6,a
      00032F A3               [24] 1437 	inc	dptr
      000330 E0               [24] 1438 	movx	a,@dptr
      000331 FF               [12] 1439 	mov	r7,a
      000332 EE               [12] 1440 	mov	a,r6
      000333 2E               [12] 1441 	add	a,r6
      000334 FE               [12] 1442 	mov	r6,a
      000335 EF               [12] 1443 	mov	a,r7
      000336 33               [12] 1444 	rlc	a
      000337 FF               [12] 1445 	mov	r7,a
      000338 EE               [12] 1446 	mov	a,r6
      000339 24r09            [12] 1447 	add	a,#_getstr_addr_buffer_char_65536_39
      00033B F5 82            [12] 1448 	mov	dpl,a
      00033D EF               [12] 1449 	mov	a,r7
      00033E 34s00            [12] 1450 	addc	a,#(_getstr_addr_buffer_char_65536_39 >> 8)
      000340 F5 83            [12] 1451 	mov	dph,a
      000342 E0               [24] 1452 	movx	a,@dptr
      000343 FE               [12] 1453 	mov	r6,a
      000344 A3               [24] 1454 	inc	dptr
      000345 E0               [24] 1455 	movx	a,@dptr
      000346 FF               [12] 1456 	mov	r7,a
      000347 BE 0D 37         [24] 1457 	cjne	r6,#0x0d,00102$
      00034A BF 00 34         [24] 1458 	cjne	r7,#0x00,00102$
                           00034D  1459 	C$Function.c$82$4_0$43 ==.
                                   1460 ;	Function.c:82: printf_tiny("%c",buffer_char[i]);
      00034D 90r00r13         [24] 1461 	mov	dptr,#_getstr_addr_i_65536_39
      000350 E0               [24] 1462 	movx	a,@dptr
      000351 FE               [12] 1463 	mov	r6,a
      000352 A3               [24] 1464 	inc	dptr
      000353 E0               [24] 1465 	movx	a,@dptr
      000354 FF               [12] 1466 	mov	r7,a
      000355 EE               [12] 1467 	mov	a,r6
      000356 2E               [12] 1468 	add	a,r6
      000357 FE               [12] 1469 	mov	r6,a
      000358 EF               [12] 1470 	mov	a,r7
      000359 33               [12] 1471 	rlc	a
      00035A FF               [12] 1472 	mov	r7,a
      00035B EE               [12] 1473 	mov	a,r6
      00035C 24r09            [12] 1474 	add	a,#_getstr_addr_buffer_char_65536_39
      00035E F5 82            [12] 1475 	mov	dpl,a
      000360 EF               [12] 1476 	mov	a,r7
      000361 34s00            [12] 1477 	addc	a,#(_getstr_addr_buffer_char_65536_39 >> 8)
      000363 F5 83            [12] 1478 	mov	dph,a
      000365 E0               [24] 1479 	movx	a,@dptr
      000366 FE               [12] 1480 	mov	r6,a
      000367 A3               [24] 1481 	inc	dptr
      000368 E0               [24] 1482 	movx	a,@dptr
      000369 FF               [12] 1483 	mov	r7,a
      00036A C0 06            [24] 1484 	push	ar6
      00036C C0 07            [24] 1485 	push	ar7
      00036E 74r00            [12] 1486 	mov	a,#___str_0
      000370 C0 E0            [24] 1487 	push	acc
      000372 74s00            [12] 1488 	mov	a,#(___str_0 >> 8)
      000374 C0 E0            [24] 1489 	push	acc
      000376 12r00r00         [24] 1490 	lcall	_printf_tiny
      000379 E5 81            [12] 1491 	mov	a,sp
      00037B 24 FC            [12] 1492 	add	a,#0xfc
      00037D F5 81            [12] 1493 	mov	sp,a
      00037F 80 25            [24] 1494 	sjmp	00106$
      000381                       1495 00102$:
                           000381  1496 	C$Function.c$86$4_0$44 ==.
                                   1497 ;	Function.c:86: printf_tiny("\n\rInvalid Input, Please enter The whole string Again.");
      000381 74r03            [12] 1498 	mov	a,#___str_1
      000383 C0 E0            [24] 1499 	push	acc
      000385 74s00            [12] 1500 	mov	a,#(___str_1 >> 8)
      000387 C0 E0            [24] 1501 	push	acc
      000389 12r00r00         [24] 1502 	lcall	_printf_tiny
      00038C 15 81            [12] 1503 	dec	sp
      00038E 15 81            [12] 1504 	dec	sp
                           000390  1505 	C$Function.c$87$4_0$44 ==.
                                   1506 ;	Function.c:87: printf_tiny("\n\rEnter the Address:");
      000390 74r39            [12] 1507 	mov	a,#___str_2
      000392 C0 E0            [24] 1508 	push	acc
      000394 74s00            [12] 1509 	mov	a,#(___str_2 >> 8)
      000396 C0 E0            [24] 1510 	push	acc
      000398 12r00r00         [24] 1511 	lcall	_printf_tiny
      00039B 15 81            [12] 1512 	dec	sp
      00039D 15 81            [12] 1513 	dec	sp
                           00039F  1514 	C$Function.c$88$4_0$44 ==.
                                   1515 ;	Function.c:88: i=0;
      00039F 90r00r13         [24] 1516 	mov	dptr,#_getstr_addr_i_65536_39
      0003A2 E4               [12] 1517 	clr	a
      0003A3 F0               [24] 1518 	movx	@dptr,a
      0003A4 A3               [24] 1519 	inc	dptr
      0003A5 F0               [24] 1520 	movx	@dptr,a
      0003A6                       1521 00106$:
                           0003A6  1522 	C$Function.c$90$3_0$41 ==.
                                   1523 ;	Function.c:90: if(i==3)
      0003A6 90r00r13         [24] 1524 	mov	dptr,#_getstr_addr_i_65536_39
      0003A9 E0               [24] 1525 	movx	a,@dptr
      0003AA FE               [12] 1526 	mov	r6,a
      0003AB A3               [24] 1527 	inc	dptr
      0003AC E0               [24] 1528 	movx	a,@dptr
      0003AD FF               [12] 1529 	mov	r7,a
      0003AE BE 03 05         [24] 1530 	cjne	r6,#0x03,00218$
      0003B1 BF 00 02         [24] 1531 	cjne	r7,#0x00,00218$
      0003B4 80 28            [24] 1532 	sjmp	00116$
      0003B6                       1533 00218$:
                           0003B6  1534 	C$Function.c$94$2_0$40 ==.
                                   1535 ;	Function.c:94: }while(buffer_char[i]!=13);
      0003B6 90r00r13         [24] 1536 	mov	dptr,#_getstr_addr_i_65536_39
      0003B9 E0               [24] 1537 	movx	a,@dptr
      0003BA FE               [12] 1538 	mov	r6,a
      0003BB A3               [24] 1539 	inc	dptr
      0003BC E0               [24] 1540 	movx	a,@dptr
      0003BD FF               [12] 1541 	mov	r7,a
      0003BE EE               [12] 1542 	mov	a,r6
      0003BF 2E               [12] 1543 	add	a,r6
      0003C0 FE               [12] 1544 	mov	r6,a
      0003C1 EF               [12] 1545 	mov	a,r7
      0003C2 33               [12] 1546 	rlc	a
      0003C3 FF               [12] 1547 	mov	r7,a
      0003C4 EE               [12] 1548 	mov	a,r6
      0003C5 24r09            [12] 1549 	add	a,#_getstr_addr_buffer_char_65536_39
      0003C7 F5 82            [12] 1550 	mov	dpl,a
      0003C9 EF               [12] 1551 	mov	a,r7
      0003CA 34s00            [12] 1552 	addc	a,#(_getstr_addr_buffer_char_65536_39 >> 8)
      0003CC F5 83            [12] 1553 	mov	dph,a
      0003CE E0               [24] 1554 	movx	a,@dptr
      0003CF FE               [12] 1555 	mov	r6,a
      0003D0 A3               [24] 1556 	inc	dptr
      0003D1 E0               [24] 1557 	movx	a,@dptr
      0003D2 FF               [12] 1558 	mov	r7,a
      0003D3 BE 0D 05         [24] 1559 	cjne	r6,#0x0d,00219$
      0003D6 BF 00 02         [24] 1560 	cjne	r7,#0x00,00219$
      0003D9 80 03            [24] 1561 	sjmp	00220$
      0003DB                       1562 00219$:
      0003DB 02r01rB5         [24] 1563 	ljmp	00114$
      0003DE                       1564 00220$:
      0003DE                       1565 00116$:
                           0003DE  1566 	C$Function.c$95$2_0$40 ==.
                                   1567 ;	Function.c:95: if(i==3)
      0003DE 90r00r13         [24] 1568 	mov	dptr,#_getstr_addr_i_65536_39
      0003E1 E0               [24] 1569 	movx	a,@dptr
      0003E2 FE               [12] 1570 	mov	r6,a
      0003E3 A3               [24] 1571 	inc	dptr
      0003E4 E0               [24] 1572 	movx	a,@dptr
      0003E5 FF               [12] 1573 	mov	r7,a
      0003E6 BE 03 33         [24] 1574 	cjne	r6,#0x03,00125$
      0003E9 BF 00 30         [24] 1575 	cjne	r7,#0x00,00125$
                           0003EC  1576 	C$Function.c$97$3_0$46 ==.
                                   1577 ;	Function.c:97: printf_tiny("\n\rCan't Add more than 3 digits.");
      0003EC 74r4E            [12] 1578 	mov	a,#___str_3
      0003EE C0 E0            [24] 1579 	push	acc
      0003F0 74s00            [12] 1580 	mov	a,#(___str_3 >> 8)
      0003F2 C0 E0            [24] 1581 	push	acc
      0003F4 12r00r00         [24] 1582 	lcall	_printf_tiny
      0003F7 15 81            [12] 1583 	dec	sp
      0003F9 15 81            [12] 1584 	dec	sp
                           0003FB  1585 	C$Function.c$98$3_0$46 ==.
                                   1586 ;	Function.c:98: buffer_char[i]=13;
      0003FB 90r00r13         [24] 1587 	mov	dptr,#_getstr_addr_i_65536_39
      0003FE E0               [24] 1588 	movx	a,@dptr
      0003FF FE               [12] 1589 	mov	r6,a
      000400 A3               [24] 1590 	inc	dptr
      000401 E0               [24] 1591 	movx	a,@dptr
      000402 FF               [12] 1592 	mov	r7,a
      000403 EE               [12] 1593 	mov	a,r6
      000404 2E               [12] 1594 	add	a,r6
      000405 FE               [12] 1595 	mov	r6,a
      000406 EF               [12] 1596 	mov	a,r7
      000407 33               [12] 1597 	rlc	a
      000408 FF               [12] 1598 	mov	r7,a
      000409 EE               [12] 1599 	mov	a,r6
      00040A 24r09            [12] 1600 	add	a,#_getstr_addr_buffer_char_65536_39
      00040C F5 82            [12] 1601 	mov	dpl,a
      00040E EF               [12] 1602 	mov	a,r7
      00040F 34s00            [12] 1603 	addc	a,#(_getstr_addr_buffer_char_65536_39 >> 8)
      000411 F5 83            [12] 1604 	mov	dph,a
      000413 74 0D            [12] 1605 	mov	a,#0x0d
      000415 F0               [24] 1606 	movx	@dptr,a
      000416 E4               [12] 1607 	clr	a
      000417 A3               [24] 1608 	inc	dptr
      000418 F0               [24] 1609 	movx	@dptr,a
      000419 02r04rE2         [24] 1610 	ljmp	00126$
      00041C                       1611 00125$:
                           00041C  1612 	C$Function.c$100$2_0$40 ==.
                                   1613 ;	Function.c:100: else if(i<3)
      00041C 90r00r13         [24] 1614 	mov	dptr,#_getstr_addr_i_65536_39
      00041F E0               [24] 1615 	movx	a,@dptr
      000420 FE               [12] 1616 	mov	r6,a
      000421 A3               [24] 1617 	inc	dptr
      000422 E0               [24] 1618 	movx	a,@dptr
      000423 FF               [12] 1619 	mov	r7,a
      000424 C3               [12] 1620 	clr	c
      000425 EE               [12] 1621 	mov	a,r6
      000426 94 03            [12] 1622 	subb	a,#0x03
      000428 EF               [12] 1623 	mov	a,r7
      000429 64 80            [12] 1624 	xrl	a,#0x80
      00042B 94 80            [12] 1625 	subb	a,#0x80
      00042D 40 03            [24] 1626 	jc	00223$
      00042F 02r04rE2         [24] 1627 	ljmp	00126$
      000432                       1628 00223$:
                           000432  1629 	C$Function.c$102$1_0$39 ==.
                                   1630 ;	Function.c:102: while(j-i!=0)
      000432 7F 03            [12] 1631 	mov	r7,#0x03
      000434                       1632 00118$:
      000434 8F 05            [24] 1633 	mov	ar5,r7
      000436 7E 00            [12] 1634 	mov	r6,#0x00
      000438 90r00r13         [24] 1635 	mov	dptr,#_getstr_addr_i_65536_39
      00043B E0               [24] 1636 	movx	a,@dptr
      00043C FB               [12] 1637 	mov	r3,a
      00043D A3               [24] 1638 	inc	dptr
      00043E E0               [24] 1639 	movx	a,@dptr
      00043F FC               [12] 1640 	mov	r4,a
      000440 ED               [12] 1641 	mov	a,r5
      000441 C3               [12] 1642 	clr	c
      000442 9B               [12] 1643 	subb	a,r3
      000443 FD               [12] 1644 	mov	r5,a
      000444 EE               [12] 1645 	mov	a,r6
      000445 9C               [12] 1646 	subb	a,r4
      000446 FE               [12] 1647 	mov	r6,a
      000447 4D               [12] 1648 	orl	a,r5
      000448 60 4E            [24] 1649 	jz	00120$
                           00044A  1650 	C$Function.c$104$1_0$39 ==.
                                   1651 ;	Function.c:104: for(uint8_t k=3;k>0;k--)
      00044A 7E 03            [12] 1652 	mov	r6,#0x03
      00044C                       1653 00134$:
      00044C EE               [12] 1654 	mov	a,r6
      00044D 60 46            [24] 1655 	jz	00117$
                           00044F  1656 	C$Function.c$106$6_0$50 ==.
                                   1657 ;	Function.c:106: buffer_char[k]=buffer_char[k-1];
      00044F EE               [12] 1658 	mov	a,r6
      000450 75 F0 02         [24] 1659 	mov	b,#0x02
      000453 A4               [48] 1660 	mul	ab
      000454 24r09            [12] 1661 	add	a,#_getstr_addr_buffer_char_65536_39
      000456 FC               [12] 1662 	mov	r4,a
      000457 74s00            [12] 1663 	mov	a,#(_getstr_addr_buffer_char_65536_39 >> 8)
      000459 35 F0            [12] 1664 	addc	a,b
      00045B FD               [12] 1665 	mov	r5,a
      00045C 8E 03            [24] 1666 	mov	ar3,r6
      00045E 1B               [12] 1667 	dec	r3
      00045F C2 D5            [12] 1668 	clr	F0
      000461 75 F0 02         [24] 1669 	mov	b,#0x02
      000464 EB               [12] 1670 	mov	a,r3
      000465 30 E7 04         [24] 1671 	jnb	acc.7,00226$
      000468 B2 D5            [12] 1672 	cpl	F0
      00046A F4               [12] 1673 	cpl	a
      00046B 04               [12] 1674 	inc	a
      00046C                       1675 00226$:
      00046C A4               [48] 1676 	mul	ab
      00046D 30 D5 0A         [24] 1677 	jnb	F0,00227$
      000470 F4               [12] 1678 	cpl	a
      000471 24 01            [12] 1679 	add	a,#0x01
      000473 C5 F0            [12] 1680 	xch	a,b
      000475 F4               [12] 1681 	cpl	a
      000476 34 00            [12] 1682 	addc	a,#0x00
      000478 C5 F0            [12] 1683 	xch	a,b
      00047A                       1684 00227$:
      00047A 24r09            [12] 1685 	add	a,#_getstr_addr_buffer_char_65536_39
      00047C F5 82            [12] 1686 	mov	dpl,a
      00047E 74s00            [12] 1687 	mov	a,#(_getstr_addr_buffer_char_65536_39 >> 8)
      000480 35 F0            [12] 1688 	addc	a,b
      000482 F5 83            [12] 1689 	mov	dph,a
      000484 E0               [24] 1690 	movx	a,@dptr
      000485 FA               [12] 1691 	mov	r2,a
      000486 A3               [24] 1692 	inc	dptr
      000487 E0               [24] 1693 	movx	a,@dptr
      000488 FB               [12] 1694 	mov	r3,a
      000489 8C 82            [24] 1695 	mov	dpl,r4
      00048B 8D 83            [24] 1696 	mov	dph,r5
      00048D EA               [12] 1697 	mov	a,r2
      00048E F0               [24] 1698 	movx	@dptr,a
      00048F EB               [12] 1699 	mov	a,r3
      000490 A3               [24] 1700 	inc	dptr
      000491 F0               [24] 1701 	movx	@dptr,a
                           000492  1702 	C$Function.c$104$5_0$49 ==.
                                   1703 ;	Function.c:104: for(uint8_t k=3;k>0;k--)
      000492 1E               [12] 1704 	dec	r6
      000493 80 B7            [24] 1705 	sjmp	00134$
      000495                       1706 00117$:
                           000495  1707 	C$Function.c$108$4_0$48 ==.
                                   1708 ;	Function.c:108: j--;
      000495 1F               [12] 1709 	dec	r7
      000496 80 9C            [24] 1710 	sjmp	00118$
      000498                       1711 00120$:
                           000498  1712 	C$Function.c$110$1_0$39 ==.
                                   1713 ;	Function.c:110: for(j=0;j<3-i;j++)
      000498 7F 00            [12] 1714 	mov	r7,#0x00
      00049A                       1715 00137$:
      00049A 90r00r13         [24] 1716 	mov	dptr,#_getstr_addr_i_65536_39
      00049D E0               [24] 1717 	movx	a,@dptr
      00049E FD               [12] 1718 	mov	r5,a
      00049F A3               [24] 1719 	inc	dptr
      0004A0 E0               [24] 1720 	movx	a,@dptr
      0004A1 FE               [12] 1721 	mov	r6,a
      0004A2 74 03            [12] 1722 	mov	a,#0x03
      0004A4 C3               [12] 1723 	clr	c
      0004A5 9D               [12] 1724 	subb	a,r5
      0004A6 FD               [12] 1725 	mov	r5,a
      0004A7 E4               [12] 1726 	clr	a
      0004A8 9E               [12] 1727 	subb	a,r6
      0004A9 FE               [12] 1728 	mov	r6,a
      0004AA 8F 03            [24] 1729 	mov	ar3,r7
      0004AC 7C 00            [12] 1730 	mov	r4,#0x00
      0004AE C3               [12] 1731 	clr	c
      0004AF EB               [12] 1732 	mov	a,r3
      0004B0 9D               [12] 1733 	subb	a,r5
      0004B1 EC               [12] 1734 	mov	a,r4
      0004B2 64 80            [12] 1735 	xrl	a,#0x80
      0004B4 8E F0            [24] 1736 	mov	b,r6
      0004B6 63 F0 80         [24] 1737 	xrl	b,#0x80
      0004B9 95 F0            [12] 1738 	subb	a,b
      0004BB 50 16            [24] 1739 	jnc	00121$
                           0004BD  1740 	C$Function.c$112$5_0$52 ==.
                                   1741 ;	Function.c:112: buffer_char[j]=0;
      0004BD EF               [12] 1742 	mov	a,r7
      0004BE 75 F0 02         [24] 1743 	mov	b,#0x02
      0004C1 A4               [48] 1744 	mul	ab
      0004C2 24r09            [12] 1745 	add	a,#_getstr_addr_buffer_char_65536_39
      0004C4 F5 82            [12] 1746 	mov	dpl,a
      0004C6 74s00            [12] 1747 	mov	a,#(_getstr_addr_buffer_char_65536_39 >> 8)
      0004C8 35 F0            [12] 1748 	addc	a,b
      0004CA F5 83            [12] 1749 	mov	dph,a
      0004CC E4               [12] 1750 	clr	a
      0004CD F0               [24] 1751 	movx	@dptr,a
      0004CE A3               [24] 1752 	inc	dptr
      0004CF F0               [24] 1753 	movx	@dptr,a
                           0004D0  1754 	C$Function.c$110$4_0$51 ==.
                                   1755 ;	Function.c:110: for(j=0;j<3-i;j++)
      0004D0 0F               [12] 1756 	inc	r7
      0004D1 80 C7            [24] 1757 	sjmp	00137$
      0004D3                       1758 00121$:
                           0004D3  1759 	C$Function.c$114$3_0$47 ==.
                                   1760 ;	Function.c:114: printf_tiny("\n\r");
      0004D3 74r6E            [12] 1761 	mov	a,#___str_4
      0004D5 C0 E0            [24] 1762 	push	acc
      0004D7 74s00            [12] 1763 	mov	a,#(___str_4 >> 8)
      0004D9 C0 E0            [24] 1764 	push	acc
      0004DB 12r00r00         [24] 1765 	lcall	_printf_tiny
      0004DE 15 81            [12] 1766 	dec	sp
      0004E0 15 81            [12] 1767 	dec	sp
      0004E2                       1768 00126$:
                           0004E2  1769 	C$Function.c$116$2_0$40 ==.
                                   1770 ;	Function.c:116: res=strtola(buffer_char);
      0004E2 90r00r09         [24] 1771 	mov	dptr,#_getstr_addr_buffer_char_65536_39
      0004E5 75 F0 00         [24] 1772 	mov	b,#0x00
      0004E8 12r00r14         [24] 1773 	lcall	_strtola
      0004EB AE 82            [24] 1774 	mov	r6,dpl
      0004ED AF 83            [24] 1775 	mov	r7,dph
                           0004EF  1776 	C$Function.c$117$2_0$40 ==.
                                   1777 ;	Function.c:117: if(res<=0x7FF)
      0004EF C3               [12] 1778 	clr	c
      0004F0 74 FF            [12] 1779 	mov	a,#0xff
      0004F2 9E               [12] 1780 	subb	a,r6
      0004F3 74 07            [12] 1781 	mov	a,#0x07
      0004F5 9F               [12] 1782 	subb	a,r7
      0004F6 40 08            [24] 1783 	jc	00128$
                           0004F8  1784 	C$Function.c$118$2_0$40 ==.
                                   1785 ;	Function.c:118: comp=1;
      0004F8 90r00r15         [24] 1786 	mov	dptr,#_getstr_addr_comp_65536_39
      0004FB 74 01            [12] 1787 	mov	a,#0x01
      0004FD F0               [24] 1788 	movx	@dptr,a
      0004FE 80 22            [24] 1789 	sjmp	00131$
      000500                       1790 00128$:
                           000500  1791 	C$Function.c$121$3_0$53 ==.
                                   1792 ;	Function.c:121: printf_tiny("\n\r Address beyond the limit, Please enter the Address again(the address should be between 000-7FF):.");
      000500 C0 07            [24] 1793 	push	ar7
      000502 C0 06            [24] 1794 	push	ar6
      000504 74r71            [12] 1795 	mov	a,#___str_5
      000506 C0 E0            [24] 1796 	push	acc
      000508 74s00            [12] 1797 	mov	a,#(___str_5 >> 8)
      00050A C0 E0            [24] 1798 	push	acc
      00050C 12r00r00         [24] 1799 	lcall	_printf_tiny
      00050F 15 81            [12] 1800 	dec	sp
      000511 15 81            [12] 1801 	dec	sp
      000513 D0 06            [24] 1802 	pop	ar6
      000515 D0 07            [24] 1803 	pop	ar7
                           000517  1804 	C$Function.c$122$3_0$53 ==.
                                   1805 ;	Function.c:122: i=0;
      000517 90r00r13         [24] 1806 	mov	dptr,#_getstr_addr_i_65536_39
      00051A E4               [12] 1807 	clr	a
      00051B F0               [24] 1808 	movx	@dptr,a
      00051C A3               [24] 1809 	inc	dptr
      00051D F0               [24] 1810 	movx	@dptr,a
                           00051E  1811 	C$Function.c$123$3_0$53 ==.
                                   1812 ;	Function.c:123: comp=0;
      00051E 90r00r15         [24] 1813 	mov	dptr,#_getstr_addr_comp_65536_39
      000521 F0               [24] 1814 	movx	@dptr,a
      000522                       1815 00131$:
                           000522  1816 	C$Function.c$125$1_0$39 ==.
                                   1817 ;	Function.c:125: }while(comp!=1);
      000522 90r00r15         [24] 1818 	mov	dptr,#_getstr_addr_comp_65536_39
      000525 E0               [24] 1819 	movx	a,@dptr
      000526 FD               [12] 1820 	mov	r5,a
      000527 BD 01 02         [24] 1821 	cjne	r5,#0x01,00230$
      00052A 80 03            [24] 1822 	sjmp	00231$
      00052C                       1823 00230$:
      00052C 02r01rB5         [24] 1824 	ljmp	00114$
      00052F                       1825 00231$:
                           00052F  1826 	C$Function.c$126$1_0$39 ==.
                                   1827 ;	Function.c:126: return res;
      00052F 8E 82            [24] 1828 	mov	dpl,r6
      000531 8F 83            [24] 1829 	mov	dph,r7
                           000533  1830 	C$Function.c$127$1_0$39 ==.
                                   1831 ;	Function.c:127: }
                           000533  1832 	C$Function.c$127$1_0$39 ==.
                           000533  1833 	XG$getstr_addr$0$0 ==.
      000533 22               [24] 1834 	ret
                                   1835 ;------------------------------------------------------------
                                   1836 ;Allocation info for local variables in function 'getstr_data'
                                   1837 ;------------------------------------------------------------
                                   1838 ;buffer_char               Allocated with name '_getstr_data_buffer_char_65536_54'
                                   1839 ;i                         Allocated with name '_getstr_data_i_65536_54'
                                   1840 ;res                       Allocated with name '_getstr_data_res_65536_54'
                                   1841 ;------------------------------------------------------------
                           000534  1842 	G$getstr_data$0$0 ==.
                           000534  1843 	C$Function.c$128$1_0$54 ==.
                                   1844 ;	Function.c:128: uint16_t getstr_data()
                                   1845 ;	-----------------------------------------
                                   1846 ;	 function getstr_data
                                   1847 ;	-----------------------------------------
      000534                       1848 _getstr_data:
                           000534  1849 	C$Function.c$130$2_0$54 ==.
                                   1850 ;	Function.c:130: int buffer_char[5],i=0,res=1;
      000534 90r00r20         [24] 1851 	mov	dptr,#_getstr_data_i_65536_54
      000537 E4               [12] 1852 	clr	a
      000538 F0               [24] 1853 	movx	@dptr,a
      000539 A3               [24] 1854 	inc	dptr
      00053A F0               [24] 1855 	movx	@dptr,a
                           00053B  1856 	C$Function.c$131$2_0$55 ==.
                                   1857 ;	Function.c:131: do
      00053B                       1858 00114$:
                           00053B  1859 	C$Function.c$133$2_0$55 ==.
                                   1860 ;	Function.c:133: buffer_char[i]=getchar();
      00053B 90r00r20         [24] 1861 	mov	dptr,#_getstr_data_i_65536_54
      00053E E0               [24] 1862 	movx	a,@dptr
      00053F FE               [12] 1863 	mov	r6,a
      000540 A3               [24] 1864 	inc	dptr
      000541 E0               [24] 1865 	movx	a,@dptr
      000542 FF               [12] 1866 	mov	r7,a
      000543 EE               [12] 1867 	mov	a,r6
      000544 2E               [12] 1868 	add	a,r6
      000545 FE               [12] 1869 	mov	r6,a
      000546 EF               [12] 1870 	mov	a,r7
      000547 33               [12] 1871 	rlc	a
      000548 FF               [12] 1872 	mov	r7,a
      000549 EE               [12] 1873 	mov	a,r6
      00054A 24r16            [12] 1874 	add	a,#_getstr_data_buffer_char_65536_54
      00054C FE               [12] 1875 	mov	r6,a
      00054D EF               [12] 1876 	mov	a,r7
      00054E 34s00            [12] 1877 	addc	a,#(_getstr_data_buffer_char_65536_54 >> 8)
      000550 FF               [12] 1878 	mov	r7,a
      000551 C0 07            [24] 1879 	push	ar7
      000553 C0 06            [24] 1880 	push	ar6
      000555 12r01r7E         [24] 1881 	lcall	_getchar
      000558 AC 82            [24] 1882 	mov	r4,dpl
      00055A AD 83            [24] 1883 	mov	r5,dph
      00055C D0 06            [24] 1884 	pop	ar6
      00055E D0 07            [24] 1885 	pop	ar7
      000560 8E 82            [24] 1886 	mov	dpl,r6
      000562 8F 83            [24] 1887 	mov	dph,r7
      000564 EC               [12] 1888 	mov	a,r4
      000565 F0               [24] 1889 	movx	@dptr,a
      000566 ED               [12] 1890 	mov	a,r5
      000567 A3               [24] 1891 	inc	dptr
      000568 F0               [24] 1892 	movx	@dptr,a
                           000569  1893 	C$Function.c$134$2_0$55 ==.
                                   1894 ;	Function.c:134: if((buffer_char[i]>='0' && buffer_char[i]<='9')||(buffer_char[i]>='a' && buffer_char[i]<='f')||(buffer_char[i]>='A' && buffer_char[i]<='F'))
      000569 C3               [12] 1895 	clr	c
      00056A EC               [12] 1896 	mov	a,r4
      00056B 94 30            [12] 1897 	subb	a,#0x30
      00056D ED               [12] 1898 	mov	a,r5
      00056E 64 80            [12] 1899 	xrl	a,#0x80
      000570 94 80            [12] 1900 	subb	a,#0x80
      000572 40 1B            [24] 1901 	jc	00109$
      000574 8E 82            [24] 1902 	mov	dpl,r6
      000576 8F 83            [24] 1903 	mov	dph,r7
      000578 E0               [24] 1904 	movx	a,@dptr
      000579 FE               [12] 1905 	mov	r6,a
      00057A A3               [24] 1906 	inc	dptr
      00057B E0               [24] 1907 	movx	a,@dptr
      00057C FF               [12] 1908 	mov	r7,a
      00057D C3               [12] 1909 	clr	c
      00057E 74 39            [12] 1910 	mov	a,#0x39
      000580 9E               [12] 1911 	subb	a,r6
      000581 74 80            [12] 1912 	mov	a,#(0x00 ^ 0x80)
      000583 8F F0            [24] 1913 	mov	b,r7
      000585 63 F0 80         [24] 1914 	xrl	b,#0x80
      000588 95 F0            [12] 1915 	subb	a,b
      00058A 40 03            [24] 1916 	jc	00150$
      00058C 02r05rFB         [24] 1917 	ljmp	00104$
      00058F                       1918 00150$:
      00058F                       1919 00109$:
      00058F 90r00r20         [24] 1920 	mov	dptr,#_getstr_data_i_65536_54
      000592 E0               [24] 1921 	movx	a,@dptr
      000593 FE               [12] 1922 	mov	r6,a
      000594 A3               [24] 1923 	inc	dptr
      000595 E0               [24] 1924 	movx	a,@dptr
      000596 FF               [12] 1925 	mov	r7,a
      000597 EE               [12] 1926 	mov	a,r6
      000598 2E               [12] 1927 	add	a,r6
      000599 FE               [12] 1928 	mov	r6,a
      00059A EF               [12] 1929 	mov	a,r7
      00059B 33               [12] 1930 	rlc	a
      00059C FF               [12] 1931 	mov	r7,a
      00059D EE               [12] 1932 	mov	a,r6
      00059E 24r16            [12] 1933 	add	a,#_getstr_data_buffer_char_65536_54
      0005A0 F5 82            [12] 1934 	mov	dpl,a
      0005A2 EF               [12] 1935 	mov	a,r7
      0005A3 34s00            [12] 1936 	addc	a,#(_getstr_data_buffer_char_65536_54 >> 8)
      0005A5 F5 83            [12] 1937 	mov	dph,a
      0005A7 E0               [24] 1938 	movx	a,@dptr
      0005A8 FE               [12] 1939 	mov	r6,a
      0005A9 A3               [24] 1940 	inc	dptr
      0005AA E0               [24] 1941 	movx	a,@dptr
      0005AB FF               [12] 1942 	mov	r7,a
      0005AC C3               [12] 1943 	clr	c
      0005AD EE               [12] 1944 	mov	a,r6
      0005AE 94 61            [12] 1945 	subb	a,#0x61
      0005B0 EF               [12] 1946 	mov	a,r7
      0005B1 64 80            [12] 1947 	xrl	a,#0x80
      0005B3 94 80            [12] 1948 	subb	a,#0x80
      0005B5 40 0E            [24] 1949 	jc	00111$
      0005B7 74 66            [12] 1950 	mov	a,#0x66
      0005B9 9E               [12] 1951 	subb	a,r6
      0005BA 74 80            [12] 1952 	mov	a,#(0x00 ^ 0x80)
      0005BC 8F F0            [24] 1953 	mov	b,r7
      0005BE 63 F0 80         [24] 1954 	xrl	b,#0x80
      0005C1 95 F0            [12] 1955 	subb	a,b
      0005C3 50 36            [24] 1956 	jnc	00104$
      0005C5                       1957 00111$:
      0005C5 90r00r20         [24] 1958 	mov	dptr,#_getstr_data_i_65536_54
      0005C8 E0               [24] 1959 	movx	a,@dptr
      0005C9 FE               [12] 1960 	mov	r6,a
      0005CA A3               [24] 1961 	inc	dptr
      0005CB E0               [24] 1962 	movx	a,@dptr
      0005CC FF               [12] 1963 	mov	r7,a
      0005CD EE               [12] 1964 	mov	a,r6
      0005CE 2E               [12] 1965 	add	a,r6
      0005CF FE               [12] 1966 	mov	r6,a
      0005D0 EF               [12] 1967 	mov	a,r7
      0005D1 33               [12] 1968 	rlc	a
      0005D2 FF               [12] 1969 	mov	r7,a
      0005D3 EE               [12] 1970 	mov	a,r6
      0005D4 24r16            [12] 1971 	add	a,#_getstr_data_buffer_char_65536_54
      0005D6 F5 82            [12] 1972 	mov	dpl,a
      0005D8 EF               [12] 1973 	mov	a,r7
      0005D9 34s00            [12] 1974 	addc	a,#(_getstr_data_buffer_char_65536_54 >> 8)
      0005DB F5 83            [12] 1975 	mov	dph,a
      0005DD E0               [24] 1976 	movx	a,@dptr
      0005DE FE               [12] 1977 	mov	r6,a
      0005DF A3               [24] 1978 	inc	dptr
      0005E0 E0               [24] 1979 	movx	a,@dptr
      0005E1 FF               [12] 1980 	mov	r7,a
      0005E2 C3               [12] 1981 	clr	c
      0005E3 EE               [12] 1982 	mov	a,r6
      0005E4 94 41            [12] 1983 	subb	a,#0x41
      0005E6 EF               [12] 1984 	mov	a,r7
      0005E7 64 80            [12] 1985 	xrl	a,#0x80
      0005E9 94 80            [12] 1986 	subb	a,#0x80
      0005EB 40 55            [24] 1987 	jc	00105$
      0005ED 74 46            [12] 1988 	mov	a,#0x46
      0005EF 9E               [12] 1989 	subb	a,r6
      0005F0 74 80            [12] 1990 	mov	a,#(0x00 ^ 0x80)
      0005F2 8F F0            [24] 1991 	mov	b,r7
      0005F4 63 F0 80         [24] 1992 	xrl	b,#0x80
      0005F7 95 F0            [12] 1993 	subb	a,b
      0005F9 40 47            [24] 1994 	jc	00105$
      0005FB                       1995 00104$:
                           0005FB  1996 	C$Function.c$136$3_0$56 ==.
                                   1997 ;	Function.c:136: printf_tiny("%c",buffer_char[i]);     //Getting the string value of characters one by one through uart.
      0005FB 90r00r20         [24] 1998 	mov	dptr,#_getstr_data_i_65536_54
      0005FE E0               [24] 1999 	movx	a,@dptr
      0005FF FE               [12] 2000 	mov	r6,a
      000600 A3               [24] 2001 	inc	dptr
      000601 E0               [24] 2002 	movx	a,@dptr
      000602 FF               [12] 2003 	mov	r7,a
      000603 EE               [12] 2004 	mov	a,r6
      000604 2E               [12] 2005 	add	a,r6
      000605 FC               [12] 2006 	mov	r4,a
      000606 EF               [12] 2007 	mov	a,r7
      000607 33               [12] 2008 	rlc	a
      000608 FD               [12] 2009 	mov	r5,a
      000609 EC               [12] 2010 	mov	a,r4
      00060A 24r16            [12] 2011 	add	a,#_getstr_data_buffer_char_65536_54
      00060C F5 82            [12] 2012 	mov	dpl,a
      00060E ED               [12] 2013 	mov	a,r5
      00060F 34s00            [12] 2014 	addc	a,#(_getstr_data_buffer_char_65536_54 >> 8)
      000611 F5 83            [12] 2015 	mov	dph,a
      000613 E0               [24] 2016 	movx	a,@dptr
      000614 FC               [12] 2017 	mov	r4,a
      000615 A3               [24] 2018 	inc	dptr
      000616 E0               [24] 2019 	movx	a,@dptr
      000617 FD               [12] 2020 	mov	r5,a
      000618 C0 07            [24] 2021 	push	ar7
      00061A C0 06            [24] 2022 	push	ar6
      00061C C0 04            [24] 2023 	push	ar4
      00061E C0 05            [24] 2024 	push	ar5
      000620 74r00            [12] 2025 	mov	a,#___str_0
      000622 C0 E0            [24] 2026 	push	acc
      000624 74s00            [12] 2027 	mov	a,#(___str_0 >> 8)
      000626 C0 E0            [24] 2028 	push	acc
      000628 12r00r00         [24] 2029 	lcall	_printf_tiny
      00062B E5 81            [12] 2030 	mov	a,sp
      00062D 24 FC            [12] 2031 	add	a,#0xfc
      00062F F5 81            [12] 2032 	mov	sp,a
      000631 D0 06            [24] 2033 	pop	ar6
      000633 D0 07            [24] 2034 	pop	ar7
                           000635  2035 	C$Function.c$137$3_0$56 ==.
                                   2036 ;	Function.c:137: i++;
      000635 90r00r20         [24] 2037 	mov	dptr,#_getstr_data_i_65536_54
      000638 74 01            [12] 2038 	mov	a,#0x01
      00063A 2E               [12] 2039 	add	a,r6
      00063B F0               [24] 2040 	movx	@dptr,a
      00063C E4               [12] 2041 	clr	a
      00063D 3F               [12] 2042 	addc	a,r7
      00063E A3               [24] 2043 	inc	dptr
      00063F F0               [24] 2044 	movx	@dptr,a
      000640 80 5F            [24] 2045 	sjmp	00106$
      000642                       2046 00105$:
                           000642  2047 	C$Function.c$139$2_0$55 ==.
                                   2048 ;	Function.c:139: else if((buffer_char[i]==13))
      000642 90r00r20         [24] 2049 	mov	dptr,#_getstr_data_i_65536_54
      000645 E0               [24] 2050 	movx	a,@dptr
      000646 FE               [12] 2051 	mov	r6,a
      000647 A3               [24] 2052 	inc	dptr
      000648 E0               [24] 2053 	movx	a,@dptr
      000649 FF               [12] 2054 	mov	r7,a
      00064A EE               [12] 2055 	mov	a,r6
      00064B 2E               [12] 2056 	add	a,r6
      00064C FE               [12] 2057 	mov	r6,a
      00064D EF               [12] 2058 	mov	a,r7
      00064E 33               [12] 2059 	rlc	a
      00064F FF               [12] 2060 	mov	r7,a
      000650 EE               [12] 2061 	mov	a,r6
      000651 24r16            [12] 2062 	add	a,#_getstr_data_buffer_char_65536_54
      000653 F5 82            [12] 2063 	mov	dpl,a
      000655 EF               [12] 2064 	mov	a,r7
      000656 34s00            [12] 2065 	addc	a,#(_getstr_data_buffer_char_65536_54 >> 8)
      000658 F5 83            [12] 2066 	mov	dph,a
      00065A E0               [24] 2067 	movx	a,@dptr
      00065B FE               [12] 2068 	mov	r6,a
      00065C A3               [24] 2069 	inc	dptr
      00065D E0               [24] 2070 	movx	a,@dptr
      00065E FF               [12] 2071 	mov	r7,a
      00065F BE 0D 1A         [24] 2072 	cjne	r6,#0x0d,00102$
      000662 BF 00 17         [24] 2073 	cjne	r7,#0x00,00102$
                           000665  2074 	C$Function.c$141$3_0$57 ==.
                                   2075 ;	Function.c:141: printf_tiny("%c",buffer_char[i]);
      000665 C0 06            [24] 2076 	push	ar6
      000667 C0 07            [24] 2077 	push	ar7
      000669 74r00            [12] 2078 	mov	a,#___str_0
      00066B C0 E0            [24] 2079 	push	acc
      00066D 74s00            [12] 2080 	mov	a,#(___str_0 >> 8)
      00066F C0 E0            [24] 2081 	push	acc
      000671 12r00r00         [24] 2082 	lcall	_printf_tiny
      000674 E5 81            [12] 2083 	mov	a,sp
      000676 24 FC            [12] 2084 	add	a,#0xfc
      000678 F5 81            [12] 2085 	mov	sp,a
      00067A 80 25            [24] 2086 	sjmp	00106$
      00067C                       2087 00102$:
                           00067C  2088 	C$Function.c$145$3_0$58 ==.
                                   2089 ;	Function.c:145: printf_tiny("\n\rInvalid Input, Please enter The whole string Again.");
      00067C 74r03            [12] 2090 	mov	a,#___str_1
      00067E C0 E0            [24] 2091 	push	acc
      000680 74s00            [12] 2092 	mov	a,#(___str_1 >> 8)
      000682 C0 E0            [24] 2093 	push	acc
      000684 12r00r00         [24] 2094 	lcall	_printf_tiny
      000687 15 81            [12] 2095 	dec	sp
      000689 15 81            [12] 2096 	dec	sp
                           00068B  2097 	C$Function.c$146$3_0$58 ==.
                                   2098 ;	Function.c:146: printf_tiny("\n\rEnter the Data:");
      00068B 74rD6            [12] 2099 	mov	a,#___str_6
      00068D C0 E0            [24] 2100 	push	acc
      00068F 74s00            [12] 2101 	mov	a,#(___str_6 >> 8)
      000691 C0 E0            [24] 2102 	push	acc
      000693 12r00r00         [24] 2103 	lcall	_printf_tiny
      000696 15 81            [12] 2104 	dec	sp
      000698 15 81            [12] 2105 	dec	sp
                           00069A  2106 	C$Function.c$147$3_0$58 ==.
                                   2107 ;	Function.c:147: i=0;
      00069A 90r00r20         [24] 2108 	mov	dptr,#_getstr_data_i_65536_54
      00069D E4               [12] 2109 	clr	a
      00069E F0               [24] 2110 	movx	@dptr,a
      00069F A3               [24] 2111 	inc	dptr
      0006A0 F0               [24] 2112 	movx	@dptr,a
      0006A1                       2113 00106$:
                           0006A1  2114 	C$Function.c$149$2_0$55 ==.
                                   2115 ;	Function.c:149: if(i==2)
      0006A1 90r00r20         [24] 2116 	mov	dptr,#_getstr_data_i_65536_54
      0006A4 E0               [24] 2117 	movx	a,@dptr
      0006A5 FE               [12] 2118 	mov	r6,a
      0006A6 A3               [24] 2119 	inc	dptr
      0006A7 E0               [24] 2120 	movx	a,@dptr
      0006A8 FF               [12] 2121 	mov	r7,a
      0006A9 BE 02 05         [24] 2122 	cjne	r6,#0x02,00157$
      0006AC BF 00 02         [24] 2123 	cjne	r7,#0x00,00157$
      0006AF 80 20            [24] 2124 	sjmp	00116$
      0006B1                       2125 00157$:
                           0006B1  2126 	C$Function.c$153$1_0$54 ==.
                                   2127 ;	Function.c:153: }while(buffer_char[i]!=13);
      0006B1 EE               [12] 2128 	mov	a,r6
      0006B2 2E               [12] 2129 	add	a,r6
      0006B3 FE               [12] 2130 	mov	r6,a
      0006B4 EF               [12] 2131 	mov	a,r7
      0006B5 33               [12] 2132 	rlc	a
      0006B6 FF               [12] 2133 	mov	r7,a
      0006B7 EE               [12] 2134 	mov	a,r6
      0006B8 24r16            [12] 2135 	add	a,#_getstr_data_buffer_char_65536_54
      0006BA F5 82            [12] 2136 	mov	dpl,a
      0006BC EF               [12] 2137 	mov	a,r7
      0006BD 34s00            [12] 2138 	addc	a,#(_getstr_data_buffer_char_65536_54 >> 8)
      0006BF F5 83            [12] 2139 	mov	dph,a
      0006C1 E0               [24] 2140 	movx	a,@dptr
      0006C2 FE               [12] 2141 	mov	r6,a
      0006C3 A3               [24] 2142 	inc	dptr
      0006C4 E0               [24] 2143 	movx	a,@dptr
      0006C5 FF               [12] 2144 	mov	r7,a
      0006C6 BE 0D 05         [24] 2145 	cjne	r6,#0x0d,00158$
      0006C9 BF 00 02         [24] 2146 	cjne	r7,#0x00,00158$
      0006CC 80 03            [24] 2147 	sjmp	00159$
      0006CE                       2148 00158$:
      0006CE 02r05r3B         [24] 2149 	ljmp	00114$
      0006D1                       2150 00159$:
      0006D1                       2151 00116$:
                           0006D1  2152 	C$Function.c$154$1_0$54 ==.
                                   2153 ;	Function.c:154: if(i==2)
      0006D1 90r00r20         [24] 2154 	mov	dptr,#_getstr_data_i_65536_54
      0006D4 E0               [24] 2155 	movx	a,@dptr
      0006D5 FE               [12] 2156 	mov	r6,a
      0006D6 A3               [24] 2157 	inc	dptr
      0006D7 E0               [24] 2158 	movx	a,@dptr
      0006D8 FF               [12] 2159 	mov	r7,a
      0006D9 BE 02 30         [24] 2160 	cjne	r6,#0x02,00118$
      0006DC BF 00 2D         [24] 2161 	cjne	r7,#0x00,00118$
                           0006DF  2162 	C$Function.c$156$2_0$60 ==.
                                   2163 ;	Function.c:156: printf_tiny("\n\rCan't Add more than 2 digits.");
      0006DF C0 07            [24] 2164 	push	ar7
      0006E1 C0 06            [24] 2165 	push	ar6
      0006E3 74rE8            [12] 2166 	mov	a,#___str_7
      0006E5 C0 E0            [24] 2167 	push	acc
      0006E7 74s00            [12] 2168 	mov	a,#(___str_7 >> 8)
      0006E9 C0 E0            [24] 2169 	push	acc
      0006EB 12r00r00         [24] 2170 	lcall	_printf_tiny
      0006EE 15 81            [12] 2171 	dec	sp
      0006F0 15 81            [12] 2172 	dec	sp
      0006F2 D0 06            [24] 2173 	pop	ar6
      0006F4 D0 07            [24] 2174 	pop	ar7
                           0006F6  2175 	C$Function.c$157$2_0$60 ==.
                                   2176 ;	Function.c:157: buffer_char[i]=13;
      0006F6 EE               [12] 2177 	mov	a,r6
      0006F7 2E               [12] 2178 	add	a,r6
      0006F8 FE               [12] 2179 	mov	r6,a
      0006F9 EF               [12] 2180 	mov	a,r7
      0006FA 33               [12] 2181 	rlc	a
      0006FB FF               [12] 2182 	mov	r7,a
      0006FC EE               [12] 2183 	mov	a,r6
      0006FD 24r16            [12] 2184 	add	a,#_getstr_data_buffer_char_65536_54
      0006FF F5 82            [12] 2185 	mov	dpl,a
      000701 EF               [12] 2186 	mov	a,r7
      000702 34s00            [12] 2187 	addc	a,#(_getstr_data_buffer_char_65536_54 >> 8)
      000704 F5 83            [12] 2188 	mov	dph,a
      000706 74 0D            [12] 2189 	mov	a,#0x0d
      000708 F0               [24] 2190 	movx	@dptr,a
      000709 E4               [12] 2191 	clr	a
      00070A A3               [24] 2192 	inc	dptr
      00070B F0               [24] 2193 	movx	@dptr,a
      00070C                       2194 00118$:
                           00070C  2195 	C$Function.c$159$1_0$54 ==.
                                   2196 ;	Function.c:159: res=strtola(buffer_char);
      00070C 90r00r16         [24] 2197 	mov	dptr,#_getstr_data_buffer_char_65536_54
      00070F 75 F0 00         [24] 2198 	mov	b,#0x00
      000712 12r00r14         [24] 2199 	lcall	_strtola
                           000715  2200 	C$Function.c$160$1_0$54 ==.
                                   2201 ;	Function.c:160: return res;
                           000715  2202 	C$Function.c$161$1_0$54 ==.
                                   2203 ;	Function.c:161: }
                           000715  2204 	C$Function.c$161$1_0$54 ==.
                           000715  2205 	XG$getstr_data$0$0 ==.
      000715 22               [24] 2206 	ret
                                   2207 ;------------------------------------------------------------
                                   2208 ;Allocation info for local variables in function 'get_block'
                                   2209 ;------------------------------------------------------------
                           000716  2210 	G$get_block$0$0 ==.
                           000716  2211 	C$Function.c$162$1_0$61 ==.
                                   2212 ;	Function.c:162: uint16_t get_block()
                                   2213 ;	-----------------------------------------
                                   2214 ;	 function get_block
                                   2215 ;	-----------------------------------------
      000716                       2216 _get_block:
                           000716  2217 	C$Function.c$164$1_0$61 ==.
                                   2218 ;	Function.c:164: return block;
      000716 90r00r00         [24] 2219 	mov	dptr,#_block
      000719 E0               [24] 2220 	movx	a,@dptr
      00071A FF               [12] 2221 	mov	r7,a
      00071B 7E 00            [12] 2222 	mov	r6,#0x00
      00071D 8F 82            [24] 2223 	mov	dpl,r7
      00071F 8E 83            [24] 2224 	mov	dph,r6
                           000721  2225 	C$Function.c$165$1_0$61 ==.
                                   2226 ;	Function.c:165: }
                           000721  2227 	C$Function.c$165$1_0$61 ==.
                           000721  2228 	XG$get_block$0$0 ==.
      000721 22               [24] 2229 	ret
                                   2230 	.area CSEG    (CODE)
                                   2231 	.area CONST   (CODE)
                           000000  2232 FFunction$__str_0$0_0$0 == .
                                   2233 	.area CONST   (CODE)
      000000                       2234 ___str_0:
      000000 25 63                 2235 	.ascii "%c"
      000002 00                    2236 	.db 0x00
                                   2237 	.area CSEG    (CODE)
                           000722  2238 FFunction$__str_1$0_0$0 == .
                                   2239 	.area CONST   (CODE)
      000003                       2240 ___str_1:
      000003 0A                    2241 	.db 0x0a
      000004 0D                    2242 	.db 0x0d
      000005 49 6E 76 61 6C 69 64  2243 	.ascii "Invalid Input, Please enter The whole string Again."
             20 49 6E 70 75 74 2C
             20 50 6C 65 61 73 65
             20 65 6E 74 65 72 20
             54 68 65 20 77 68 6F
             6C 65 20 73 74 72 69
             6E 67 20 41 67 61 69
             6E 2E
      000038 00                    2244 	.db 0x00
                                   2245 	.area CSEG    (CODE)
                           000722  2246 FFunction$__str_2$0_0$0 == .
                                   2247 	.area CONST   (CODE)
      000039                       2248 ___str_2:
      000039 0A                    2249 	.db 0x0a
      00003A 0D                    2250 	.db 0x0d
      00003B 45 6E 74 65 72 20 74  2251 	.ascii "Enter the Address:"
             68 65 20 41 64 64 72
             65 73 73 3A
      00004D 00                    2252 	.db 0x00
                                   2253 	.area CSEG    (CODE)
                           000722  2254 FFunction$__str_3$0_0$0 == .
                                   2255 	.area CONST   (CODE)
      00004E                       2256 ___str_3:
      00004E 0A                    2257 	.db 0x0a
      00004F 0D                    2258 	.db 0x0d
      000050 43 61 6E 27 74 20 41  2259 	.ascii "Can't Add more than 3 digits."
             64 64 20 6D 6F 72 65
             20 74 68 61 6E 20 33
             20 64 69 67 69 74 73
             2E
      00006D 00                    2260 	.db 0x00
                                   2261 	.area CSEG    (CODE)
                           000722  2262 FFunction$__str_4$0_0$0 == .
                                   2263 	.area CONST   (CODE)
      00006E                       2264 ___str_4:
      00006E 0A                    2265 	.db 0x0a
      00006F 0D                    2266 	.db 0x0d
      000070 00                    2267 	.db 0x00
                                   2268 	.area CSEG    (CODE)
                           000722  2269 FFunction$__str_5$0_0$0 == .
                                   2270 	.area CONST   (CODE)
      000071                       2271 ___str_5:
      000071 0A                    2272 	.db 0x0a
      000072 0D                    2273 	.db 0x0d
      000073 20 41 64 64 72 65 73  2274 	.ascii " Address beyond the limit, Please enter the Address again(th"
             73 20 62 65 79 6F 6E
             64 20 74 68 65 20 6C
             69 6D 69 74 2C 20 50
             6C 65 61 73 65 20 65
             6E 74 65 72 20 74 68
             65 20 41 64 64 72 65
             73 73 20 61 67 61 69
             6E 28 74 68
      0000AF 65 20 61 64 64 72 65  2275 	.ascii "e address should be between 000-7FF):."
             73 73 20 73 68 6F 75
             6C 64 20 62 65 20 62
             65 74 77 65 65 6E 20
             30 30 30 2D 37 46 46
             29 3A 2E
      0000D5 00                    2276 	.db 0x00
                                   2277 	.area CSEG    (CODE)
                           000722  2278 FFunction$__str_6$0_0$0 == .
                                   2279 	.area CONST   (CODE)
      0000D6                       2280 ___str_6:
      0000D6 0A                    2281 	.db 0x0a
      0000D7 0D                    2282 	.db 0x0d
      0000D8 45 6E 74 65 72 20 74  2283 	.ascii "Enter the Data:"
             68 65 20 44 61 74 61
             3A
      0000E7 00                    2284 	.db 0x00
                                   2285 	.area CSEG    (CODE)
                           000722  2286 FFunction$__str_7$0_0$0 == .
                                   2287 	.area CONST   (CODE)
      0000E8                       2288 ___str_7:
      0000E8 0A                    2289 	.db 0x0a
      0000E9 0D                    2290 	.db 0x0d
      0000EA 43 61 6E 27 74 20 41  2291 	.ascii "Can't Add more than 2 digits."
             64 64 20 6D 6F 72 65
             20 74 68 61 6E 20 32
             20 64 69 67 69 74 73
             2E
      000107 00                    2292 	.db 0x00
                                   2293 	.area CSEG    (CODE)
                                   2294 	.area XINIT   (CODE)
                                   2295 	.area CABS    (ABS,CODE)
